
LCD_ILI9341_ESE_323.elf:     file format elf32-avr

Sections:
Idx Name          Size      VMA       LMA       File off  Algn
  0 .text         000027d6  00000000  00000000  00000094  2**1
                  CONTENTS, ALLOC, LOAD, READONLY, CODE
  1 .data         00000032  00802000  000027d6  0000286a  2**0
                  CONTENTS, ALLOC, LOAD, DATA
  2 .bss          0000001b  00802032  00802032  0000289c  2**0
                  ALLOC
  3 .comment      0000005c  00000000  00000000  0000289c  2**0
                  CONTENTS, READONLY
  4 .note.gnu.avr.deviceinfo 00000040  00000000  00000000  000028f8  2**2
                  CONTENTS, READONLY
  5 .debug_aranges 00000168  00000000  00000000  00002938  2**0
                  CONTENTS, READONLY, DEBUGGING
  6 .debug_info   00004a12  00000000  00000000  00002aa0  2**0
                  CONTENTS, READONLY, DEBUGGING
  7 .debug_abbrev 00002228  00000000  00000000  000074b2  2**0
                  CONTENTS, READONLY, DEBUGGING
  8 .debug_line   0000182f  00000000  00000000  000096da  2**0
                  CONTENTS, READONLY, DEBUGGING
  9 .debug_frame  0000041c  00000000  00000000  0000af0c  2**2
                  CONTENTS, READONLY, DEBUGGING
 10 .debug_str    00001a84  00000000  00000000  0000b328  2**0
                  CONTENTS, READONLY, DEBUGGING
 11 .debug_loc    0000146e  00000000  00000000  0000cdac  2**0
                  CONTENTS, READONLY, DEBUGGING
 12 .debug_ranges 000001e0  00000000  00000000  0000e21a  2**0
                  CONTENTS, READONLY, DEBUGGING

Disassembly of section .text:

00000000 <__vectors>:
       0:	0c 94 55 03 	jmp	0x6aa	; 0x6aa <__ctors_end>
       4:	0c 94 72 03 	jmp	0x6e4	; 0x6e4 <__bad_interrupt>
       8:	0c 94 72 03 	jmp	0x6e4	; 0x6e4 <__bad_interrupt>
       c:	0c 94 72 03 	jmp	0x6e4	; 0x6e4 <__bad_interrupt>
      10:	0c 94 72 03 	jmp	0x6e4	; 0x6e4 <__bad_interrupt>
      14:	0c 94 72 03 	jmp	0x6e4	; 0x6e4 <__bad_interrupt>
      18:	0c 94 72 03 	jmp	0x6e4	; 0x6e4 <__bad_interrupt>
      1c:	0c 94 72 03 	jmp	0x6e4	; 0x6e4 <__bad_interrupt>
      20:	0c 94 72 03 	jmp	0x6e4	; 0x6e4 <__bad_interrupt>
      24:	0c 94 72 03 	jmp	0x6e4	; 0x6e4 <__bad_interrupt>
      28:	0c 94 72 03 	jmp	0x6e4	; 0x6e4 <__bad_interrupt>
      2c:	0c 94 72 03 	jmp	0x6e4	; 0x6e4 <__bad_interrupt>
      30:	0c 94 72 03 	jmp	0x6e4	; 0x6e4 <__bad_interrupt>
      34:	0c 94 72 03 	jmp	0x6e4	; 0x6e4 <__bad_interrupt>
      38:	0c 94 72 03 	jmp	0x6e4	; 0x6e4 <__bad_interrupt>
      3c:	0c 94 72 03 	jmp	0x6e4	; 0x6e4 <__bad_interrupt>
      40:	0c 94 72 03 	jmp	0x6e4	; 0x6e4 <__bad_interrupt>
      44:	0c 94 72 03 	jmp	0x6e4	; 0x6e4 <__bad_interrupt>
      48:	0c 94 72 03 	jmp	0x6e4	; 0x6e4 <__bad_interrupt>
      4c:	0c 94 72 03 	jmp	0x6e4	; 0x6e4 <__bad_interrupt>
      50:	0c 94 72 03 	jmp	0x6e4	; 0x6e4 <__bad_interrupt>
      54:	0c 94 72 03 	jmp	0x6e4	; 0x6e4 <__bad_interrupt>
      58:	0c 94 72 03 	jmp	0x6e4	; 0x6e4 <__bad_interrupt>
      5c:	0c 94 72 03 	jmp	0x6e4	; 0x6e4 <__bad_interrupt>
      60:	0c 94 72 03 	jmp	0x6e4	; 0x6e4 <__bad_interrupt>
      64:	0c 94 72 03 	jmp	0x6e4	; 0x6e4 <__bad_interrupt>
      68:	0c 94 72 03 	jmp	0x6e4	; 0x6e4 <__bad_interrupt>
      6c:	0c 94 72 03 	jmp	0x6e4	; 0x6e4 <__bad_interrupt>
      70:	0c 94 72 03 	jmp	0x6e4	; 0x6e4 <__bad_interrupt>
      74:	0c 94 72 03 	jmp	0x6e4	; 0x6e4 <__bad_interrupt>
      78:	0c 94 72 03 	jmp	0x6e4	; 0x6e4 <__bad_interrupt>
      7c:	0c 94 72 03 	jmp	0x6e4	; 0x6e4 <__bad_interrupt>
      80:	0c 94 72 03 	jmp	0x6e4	; 0x6e4 <__bad_interrupt>
      84:	0c 94 72 03 	jmp	0x6e4	; 0x6e4 <__bad_interrupt>
      88:	0c 94 72 03 	jmp	0x6e4	; 0x6e4 <__bad_interrupt>
      8c:	0c 94 72 03 	jmp	0x6e4	; 0x6e4 <__bad_interrupt>
      90:	0c 94 72 03 	jmp	0x6e4	; 0x6e4 <__bad_interrupt>
      94:	0c 94 72 03 	jmp	0x6e4	; 0x6e4 <__bad_interrupt>
      98:	0c 94 72 03 	jmp	0x6e4	; 0x6e4 <__bad_interrupt>
      9c:	0c 94 72 03 	jmp	0x6e4	; 0x6e4 <__bad_interrupt>
      a0:	0c 94 72 03 	jmp	0x6e4	; 0x6e4 <__bad_interrupt>
      a4:	0c 94 72 03 	jmp	0x6e4	; 0x6e4 <__bad_interrupt>
      a8:	0c 94 72 03 	jmp	0x6e4	; 0x6e4 <__bad_interrupt>

000000ac <__trampolines_end>:
      ac:	6e 61       	ori	r22, 0x1E	; 30
      ae:	6e 00       	.word	0x006e	; ????

000000b0 <__c.2240>:
      b0:	69 6e 66 00 00 40 7a 10 f3 5a 00 a0 72 4e 18 09     inf..@z..Z..rN..
      c0:	00 10 a5 d4 e8 00 00 e8 76 48 17 00 00 e4 0b 54     ........vH.....T
      d0:	02 00 00 ca 9a 3b 00 00 00 e1 f5 05 00 00 80 96     .....;..........
      e0:	98 00 00 00 40 42 0f 00 00 00 a0 86 01 00 00 00     ....@B..........
      f0:	10 27 00 00 00 00 e8 03 00 00 00 00 64 00 00 00     .'..........d...
     100:	00 00 0a 00 00 00 00 00 01 00 00 00 00 00 2c 76     ..............,v
     110:	d8 88 dc 67 4f 08 23 df c1 df ae 59 e1 b1 b7 96     ...gO.#....Y....
     120:	e5 e3 e4 53 c6 3a e6 51 99 76 96 e8 e6 c2 84 26     ...S.:.Q.v.....&
     130:	eb 89 8c 9b 62 ed 40 7c 6f fc ef bc 9c 9f 40 f2     ....b.@|o.....@.
     140:	ba a5 6f a5 f4 90 05 5a 2a f7 5c 93 6b 6c f9 67     ..o....Z*.\.kl.g
     150:	6d c1 1b fc e0 e4 0d 47 fe f5 20 e6 b5 00 d0 ed     m......G.. .....
     160:	90 2e 03 00 94 35 77 05 00 80 84 1e 08 00 00 20     .....5w........ 
     170:	4e 0a 00 00 00 c8 0c 33 33 33 33 0f 98 6e 12 83     N......3333..n..
     180:	11 41 ef 8d 21 14 89 3b e6 55 16 cf fe e6 db 18     .A..!..;.U......
     190:	d1 84 4b 38 1b f7 7c 1d 90 1d a4 bb e4 24 20 32     ..K8..|......$ 2
     1a0:	84 72 5e 22 81 00 c9 f1 24 ec a1 e5 3d 27           .r^"....$...='

000001ae <font>:
     1ae:	00 00 00 00 00 3e 5b 4f 5b 3e 3e 6b 4f 6b 3e 1c     .....>[O[>>kOk>.
     1be:	3e 7c 3e 1c 18 3c 7e 3c 18 1c 57 7d 57 1c 1c 5e     >|>..<~<..W}W..^
     1ce:	7f 5e 1c 00 18 3c 18 00 ff e7 c3 e7 ff 00 18 24     .^...<.........$
     1de:	18 00 ff e7 db e7 ff 30 48 3a 06 0e 26 29 79 29     .......0H:..&)y)
     1ee:	26 40 7f 05 05 07 40 7f 05 25 3f 5a 3c e7 3c 5a     &@....@..%?Z<.<Z
     1fe:	7f 3e 1c 1c 08 08 1c 1c 3e 7f 14 22 7f 22 14 5f     .>......>.."."._
     20e:	5f 00 5f 5f 06 09 7f 01 7f 00 66 89 95 6a 60 60     _.__......f..j``
     21e:	60 60 60 94 a2 ff a2 94 08 04 7e 04 08 10 20 7e     ```.......~... ~
     22e:	20 10 08 08 2a 1c 08 08 1c 2a 08 08 1e 10 10 10      ...*....*......
     23e:	10 0c 1e 0c 1e 0c 30 38 3e 38 30 06 0e 3e 0e 06     ......08>80..>..
     24e:	00 00 00 00 00 00 00 5f 00 00 00 07 00 07 00 14     ......._........
     25e:	7f 14 7f 14 24 2a 7f 2a 12 23 13 08 64 62 36 49     ....$*.*.#..db6I
     26e:	56 20 50 00 08 07 03 00 00 1c 22 41 00 00 41 22     V P......."A..A"
     27e:	1c 00 2a 1c 7f 1c 2a 08 08 3e 08 08 00 80 70 30     ..*...*..>....p0
     28e:	00 08 08 08 08 08 00 00 60 60 00 20 10 08 04 02     ........``. ....
     29e:	3e 51 49 45 3e 00 42 7f 40 00 72 49 49 49 46 21     >QIE>.B.@.rIIIF!
     2ae:	41 49 4d 33 18 14 12 7f 10 27 45 45 45 39 3c 4a     AIM3.....'EEE9<J
     2be:	49 49 31 41 21 11 09 07 36 49 49 49 36 46 49 49     II1A!...6III6FII
     2ce:	29 1e 00 00 14 00 00 00 40 34 00 00 00 08 14 22     ).......@4....."
     2de:	41 14 14 14 14 14 00 41 22 14 08 02 01 59 09 06     A......A"....Y..
     2ee:	3e 41 5d 59 4e 7c 12 11 12 7c 7f 49 49 49 36 3e     >A]YN|...|.III6>
     2fe:	41 41 41 22 7f 41 41 41 3e 7f 49 49 49 41 7f 09     AAA".AAA>.IIIA..
     30e:	09 09 01 3e 41 41 51 73 7f 08 08 08 7f 00 41 7f     ...>AAQs......A.
     31e:	41 00 20 40 41 3f 01 7f 08 14 22 41 7f 40 40 40     A. @A?...."A.@@@
     32e:	40 7f 02 1c 02 7f 7f 04 08 10 7f 3e 41 41 41 3e     @..........>AAA>
     33e:	7f 09 09 09 06 3e 41 51 21 5e 7f 09 19 29 46 26     .....>AQ!^...)F&
     34e:	49 49 49 32 03 01 7f 01 03 3f 40 40 40 3f 1f 20     III2.....?@@@?. 
     35e:	40 20 1f 3f 40 38 40 3f 63 14 08 14 63 03 04 78     @ .?@8@?c...c..x
     36e:	04 03 61 59 49 4d 43 00 7f 41 41 41 02 04 08 10     ..aYIMC..AAA....
     37e:	20 00 41 41 41 7f 04 02 01 02 04 40 40 40 40 40      .AAA......@@@@@
     38e:	00 03 07 08 00 20 54 54 78 40 7f 28 44 44 38 38     ..... TTx@.(DD88
     39e:	44 44 44 28 38 44 44 28 7f 38 54 54 54 18 00 08     DDD(8DD(.8TTT...
     3ae:	7e 09 02 18 a4 a4 9c 78 7f 08 04 04 78 00 44 7d     ~......x....x.D}
     3be:	40 00 20 40 40 3d 00 7f 10 28 44 00 00 41 7f 40     @. @@=...(D..A.@
     3ce:	00 7c 04 78 04 78 7c 08 04 04 78 38 44 44 44 38     .|.x.x|...x8DDD8
     3de:	fc 18 24 24 18 18 24 24 18 fc 7c 08 04 04 08 48     ..$$..$$..|....H
     3ee:	54 54 54 24 04 04 3f 44 24 3c 40 40 20 7c 1c 20     TTT$..?D$<@@ |. 
     3fe:	40 20 1c 3c 40 30 40 3c 44 28 10 28 44 4c 90 90     @ .<@0@<D(.(DL..
     40e:	90 7c 44 64 54 4c 44 00 08 36 41 00 00 00 77 00     .|DdTLD..6A...w.
     41e:	00 00 41 36 08 00 02 01 02 04 02 3c 26 23 26 3c     ..A6.......<&#&<
     42e:	1e a1 a1 61 12 3a 40 40 20 7a 38 54 54 55 59 21     ...a.:@@ z8TTUY!
     43e:	55 55 79 41 22 54 54 78 42 21 55 54 78 40 20 54     UUyA"TTxB!UTx@ T
     44e:	55 79 40 0c 1e 52 72 12 39 55 55 55 59 39 54 54     Uy@..Rr.9UUUY9TT
     45e:	54 59 39 55 54 54 58 00 00 45 7c 41 00 02 45 7d     TY9UTTX..E|A..E}
     46e:	42 00 01 45 7c 40 7d 12 11 12 7d f0 28 25 28 f0     B..E|@}...}.(%(.
     47e:	7c 54 55 45 00 20 54 54 7c 54 7c 0a 09 7f 49 32     |TUE. TT|T|...I2
     48e:	49 49 49 32 3a 44 44 44 3a 32 4a 48 48 30 3a 41     III2:DDD:2JHH0:A
     49e:	41 21 7a 3a 42 40 20 78 00 9d a0 a0 7d 3d 42 42     A!z:B@ x....}=BB
     4ae:	42 3d 3d 40 40 40 3d 3c 24 ff 24 24 48 7e 49 43     B==@@@=<$.$$H~IC
     4be:	66 2b 2f fc 2f 2b ff 09 29 f6 20 c0 88 7e 09 03     f+/./+..). ..~..
     4ce:	20 54 54 79 41 00 00 44 7d 41 30 48 48 4a 32 38      TTyA..D}A0HHJ28
     4de:	40 40 22 7a 00 7a 0a 0a 72 7d 0d 19 31 7d 26 29     @@"z.z..r}..1}&)
     4ee:	29 2f 28 26 29 29 29 26 30 48 4d 40 20 38 08 08     )/(&)))&0HM@ 8..
     4fe:	08 08 08 08 08 08 38 2f 10 c8 ac ba 2f 10 28 34     ......8/..../.(4
     50e:	fa 00 00 7b 00 00 08 14 2a 14 22 22 14 2a 14 08     ...{....*."".*..
     51e:	aa 00 55 00 aa aa 55 aa 55 aa 00 00 00 ff 00 10     ..U...U.U.......
     52e:	10 10 ff 00 14 14 14 ff 00 10 10 ff 00 ff 10 10     ................
     53e:	f0 10 f0 14 14 14 fc 00 14 14 f7 00 ff 00 00 ff     ................
     54e:	00 ff 14 14 f4 04 fc 14 14 17 10 1f 10 10 1f 10     ................
     55e:	1f 14 14 14 1f 00 10 10 10 f0 00 00 00 00 1f 10     ................
     56e:	10 10 10 1f 10 10 10 10 f0 10 00 00 00 ff 10 10     ................
     57e:	10 10 10 10 10 10 10 ff 10 00 00 00 ff 14 00 00     ................
     58e:	ff 00 ff 00 00 1f 10 17 00 00 fc 04 f4 14 14 17     ................
     59e:	10 17 14 14 f4 04 f4 00 00 ff 00 f7 14 14 14 14     ................
     5ae:	14 14 14 f7 00 f7 14 14 14 17 14 10 10 1f 10 1f     ................
     5be:	14 14 14 f4 14 10 10 f0 10 f0 00 00 1f 10 1f 00     ................
     5ce:	00 00 1f 14 00 00 00 fc 14 00 00 f0 10 f0 10 10     ................
     5de:	ff 10 ff 14 14 14 ff 14 10 10 10 1f 00 00 00 00     ................
     5ee:	f0 10 ff ff ff ff ff f0 f0 f0 f0 f0 ff ff ff 00     ................
     5fe:	00 00 00 00 ff ff 0f 0f 0f 0f 0f 38 44 44 38 44     ...........8DD8D
     60e:	fc 4a 4a 4a 34 7e 02 02 06 06 02 7e 02 7e 02 63     .JJJ4~.....~.~.c
     61e:	55 49 41 63 38 44 44 3c 04 40 7e 20 1e 20 06 02     UIAc8DD<.@~ . ..
     62e:	7e 02 02 99 a5 e7 a5 99 1c 2a 49 2a 1c 4c 72 01     ~........*I*.Lr.
     63e:	72 4c 30 4a 4d 4d 30 30 48 78 48 30 bc 62 5a 46     rL0JMM00HxH0.bZF
     64e:	3d 3e 49 49 49 00 7e 01 01 01 7e 2a 2a 2a 2a 2a     =>III.~...~*****
     65e:	44 44 5f 44 44 40 51 4a 44 40 40 44 4a 51 40 00     DD_DD@QJD@@DJQ@.
     66e:	00 ff 01 03 e0 80 ff 00 00 08 08 6b 6b 08 36 12     ...........kk.6.
     67e:	36 24 36 06 0f 09 0f 06 00 00 18 18 00 00 00 10     6$6.............
     68e:	10 00 30 40 ff 01 01 00 1f 01 01 1e 00 19 1d 17     ..0@............
     69e:	12 00 3c 3c 3c 3c 00 00 00 00 00 00                 ..<<<<......

000006aa <__ctors_end>:
     6aa:	11 24       	eor	r1, r1
     6ac:	1f be       	out	0x3f, r1	; 63
     6ae:	cf ef       	ldi	r28, 0xFF	; 255
     6b0:	cd bf       	out	0x3d, r28	; 61
     6b2:	df e2       	ldi	r29, 0x2F	; 47
     6b4:	de bf       	out	0x3e, r29	; 62

000006b6 <__do_copy_data>:
     6b6:	10 e2       	ldi	r17, 0x20	; 32
     6b8:	a0 e0       	ldi	r26, 0x00	; 0
     6ba:	b0 e2       	ldi	r27, 0x20	; 32
     6bc:	e6 ed       	ldi	r30, 0xD6	; 214
     6be:	f7 e2       	ldi	r31, 0x27	; 39
     6c0:	02 c0       	rjmp	.+4      	; 0x6c6 <__do_copy_data+0x10>
     6c2:	05 90       	lpm	r0, Z+
     6c4:	0d 92       	st	X+, r0
     6c6:	a2 33       	cpi	r26, 0x32	; 50
     6c8:	b1 07       	cpc	r27, r17
     6ca:	d9 f7       	brne	.-10     	; 0x6c2 <__do_copy_data+0xc>

000006cc <__do_clear_bss>:
     6cc:	20 e2       	ldi	r18, 0x20	; 32
     6ce:	a2 e3       	ldi	r26, 0x32	; 50
     6d0:	b0 e2       	ldi	r27, 0x20	; 32
     6d2:	01 c0       	rjmp	.+2      	; 0x6d6 <.do_clear_bss_start>

000006d4 <.do_clear_bss_loop>:
     6d4:	1d 92       	st	X+, r1

000006d6 <.do_clear_bss_start>:
     6d6:	ad 34       	cpi	r26, 0x4D	; 77
     6d8:	b2 07       	cpc	r27, r18
     6da:	e1 f7       	brne	.-8      	; 0x6d4 <.do_clear_bss_loop>
     6dc:	0e 94 6a 0e 	call	0x1cd4	; 0x1cd4 <main>
     6e0:	0c 94 e9 13 	jmp	0x27d2	; 0x27d2 <_exit>

000006e4 <__bad_interrupt>:
     6e4:	0c 94 00 00 	jmp	0	; 0x0 <__vectors>

000006e8 <gfx_drawChar>:

uint16_t cursor_x , cursor_y, textColor, bgcolor, vset_x, vset_y, vactual_y, iset_x, iset_y, iactual_x, iactual_y, width, height;
//uint16_t width = getWidth();
//uint16_t height = getHeight();
uint8_t textSize;
void gfx_drawChar(int16_t x, int16_t y, char c, uint16_t color, uint16_t bg, uint8_t size){
     6e8:	2f 92       	push	r2
     6ea:	3f 92       	push	r3
     6ec:	4f 92       	push	r4
     6ee:	5f 92       	push	r5
     6f0:	6f 92       	push	r6
     6f2:	7f 92       	push	r7
     6f4:	8f 92       	push	r8
     6f6:	9f 92       	push	r9
     6f8:	af 92       	push	r10
     6fa:	bf 92       	push	r11
     6fc:	cf 92       	push	r12
     6fe:	df 92       	push	r13
     700:	ef 92       	push	r14
     702:	ff 92       	push	r15
     704:	0f 93       	push	r16
     706:	1f 93       	push	r17
     708:	cf 93       	push	r28
     70a:	df 93       	push	r29
     70c:	cd b7       	in	r28, 0x3d	; 61
     70e:	de b7       	in	r29, 0x3e	; 62
     710:	29 97       	sbiw	r28, 0x09	; 9
     712:	cd bf       	out	0x3d, r28	; 61
     714:	de bf       	out	0x3e, r29	; 62
	
	if((x >=width) || (y >=height) || ((x + 6 * size - 1) < 0) || ((y + 8 * size - 1) < 0)){   //if location exceeds the size of the screen, return
     716:	e0 91 4b 20 	lds	r30, 0x204B	; 0x80204b <width>
     71a:	f0 91 4c 20 	lds	r31, 0x204C	; 0x80204c <width+0x1>
     71e:	8e 17       	cp	r24, r30
     720:	9f 07       	cpc	r25, r31
     722:	08 f0       	brcs	.+2      	; 0x726 <gfx_drawChar+0x3e>
     724:	7a c0       	rjmp	.+244    	; 0x81a <gfx_drawChar+0x132>
     726:	e0 91 49 20 	lds	r30, 0x2049	; 0x802049 <height>
     72a:	f0 91 4a 20 	lds	r31, 0x204A	; 0x80204a <height+0x1>
     72e:	6e 17       	cp	r22, r30
     730:	7f 07       	cpc	r23, r31
     732:	08 f0       	brcs	.+2      	; 0x736 <gfx_drawChar+0x4e>
     734:	72 c0       	rjmp	.+228    	; 0x81a <gfx_drawChar+0x132>
     736:	ae 2c       	mov	r10, r14
     738:	b1 2c       	mov	r11, r1
     73a:	fc 01       	movw	r30, r24
     73c:	56 e0       	ldi	r21, 0x06	; 6
     73e:	e5 9e       	mul	r14, r21
     740:	e0 0d       	add	r30, r0
     742:	f1 1d       	adc	r31, r1
     744:	11 24       	eor	r1, r1
     746:	1e 16       	cp	r1, r30
     748:	1f 06       	cpc	r1, r31
     74a:	0c f0       	brlt	.+2      	; 0x74e <gfx_drawChar+0x66>
     74c:	66 c0       	rjmp	.+204    	; 0x81a <gfx_drawChar+0x132>
     74e:	f5 01       	movw	r30, r10
     750:	ee 0f       	add	r30, r30
     752:	ff 1f       	adc	r31, r31
     754:	ee 0f       	add	r30, r30
     756:	ff 1f       	adc	r31, r31
     758:	ee 0f       	add	r30, r30
     75a:	ff 1f       	adc	r31, r31
     75c:	e6 0f       	add	r30, r22
     75e:	f7 1f       	adc	r31, r23
     760:	1e 16       	cp	r1, r30
     762:	1f 06       	cpc	r1, r31
     764:	0c f0       	brlt	.+2      	; 0x768 <gfx_drawChar+0x80>
     766:	59 c0       	rjmp	.+178    	; 0x81a <gfx_drawChar+0x132>
     768:	18 01       	movw	r2, r16
     76a:	39 01       	movw	r6, r18
     76c:	6c 83       	std	Y+4, r22	; 0x04
     76e:	7d 83       	std	Y+5, r23	; 0x05
	for (int8_t i=0; i<6; i++ ) {
		uint8_t line;
		if (i == 5)
			line = 0x0;
		else
			line = pgm_read_byte(font+(c*5)+i);		//read the whole line - ie the character details
     770:	65 e0       	ldi	r22, 0x05	; 5
     772:	46 9f       	mul	r20, r22
     774:	90 01       	movw	r18, r0
     776:	11 24       	eor	r1, r1
     778:	4c 01       	movw	r8, r24
     77a:	89 83       	std	Y+1, r24	; 0x01
     77c:	9a 83       	std	Y+2, r25	; 0x02
     77e:	e1 2c       	mov	r14, r1
     780:	8c 81       	ldd	r24, Y+4	; 0x04
     782:	9d 81       	ldd	r25, Y+5	; 0x05
     784:	08 96       	adiw	r24, 0x08	; 8
     786:	2c 01       	movw	r4, r24
     788:	d9 01       	movw	r26, r18
     78a:	a8 19       	sub	r26, r8
     78c:	b9 09       	sbc	r27, r9
     78e:	ae 83       	std	Y+6, r26	; 0x06
     790:	bf 83       	std	Y+7, r27	; 0x07
     792:	eb 82       	std	Y+3, r14	; 0x03
     794:	1a 2d       	mov	r17, r10
	if((x >=width) || (y >=height) || ((x + 6 * size - 1) < 0) || ((y + 8 * size - 1) < 0)){   //if location exceeds the size of the screen, return
		return;
	}
	for (int8_t i=0; i<6; i++ ) {
		uint8_t line;
		if (i == 5)
     796:	bb 81       	ldd	r27, Y+3	; 0x03
     798:	b5 30       	cpi	r27, 0x05	; 5
     79a:	09 f4       	brne	.+2      	; 0x79e <gfx_drawChar+0xb6>
     79c:	62 c0       	rjmp	.+196    	; 0x862 <gfx_drawChar+0x17a>
     79e:	ee 81       	ldd	r30, Y+6	; 0x06
     7a0:	ff 81       	ldd	r31, Y+7	; 0x07
     7a2:	89 81       	ldd	r24, Y+1	; 0x01
     7a4:	9a 81       	ldd	r25, Y+2	; 0x02
     7a6:	e8 0f       	add	r30, r24
     7a8:	f9 1f       	adc	r31, r25
     7aa:	e2 55       	subi	r30, 0x52	; 82
     7ac:	fe 4f       	sbci	r31, 0xFE	; 254
			line = 0x0;
		else
			line = pgm_read_byte(font+(c*5)+i);		//read the whole line - ie the character details
     7ae:	04 91       	lpm	r16, Z
		return;
	}
	for (int8_t i=0; i<6; i++ ) {
		uint8_t line;
		if (i == 5)
			line = 0x0;
     7b0:	cc 80       	ldd	r12, Y+4	; 0x04
     7b2:	dd 80       	ldd	r13, Y+5	; 0x05
     7b4:	76 01       	movw	r14, r12
     7b6:	09 87       	std	Y+9, r16	; 0x09
     7b8:	18 87       	std	Y+8, r17	; 0x08
     7ba:	16 c0       	rjmp	.+44     	; 0x7e8 <gfx_drawChar+0x100>
		else
			line = pgm_read_byte(font+(c*5)+i);		//read the whole line - ie the character details
		for (int8_t j = 0; j<8; j++) {
			if (line & 0x1) {
				if (size == 1) // default size
     7bc:	a8 85       	ldd	r26, Y+8	; 0x08
     7be:	a1 30       	cpi	r26, 0x01	; 1
     7c0:	09 f4       	brne	.+2      	; 0x7c4 <gfx_drawChar+0xdc>
     7c2:	41 c0       	rjmp	.+130    	; 0x846 <gfx_drawChar+0x15e>
					drawPixel(x+i, y+j, color);
				else {  // big size
					fillrect(x+(i*size), y+(j*size), size, size, color);
     7c4:	83 01       	movw	r16, r6
			else if (bg != color) {
				if (size == 1) // default size
					drawPixel(x+i, y+j, bg);
				else
				{  // big size
					fillrect(x+i*size, y+j*size, size, size, bg);
     7c6:	95 01       	movw	r18, r10
     7c8:	a5 01       	movw	r20, r10
     7ca:	b6 01       	movw	r22, r12
     7cc:	c4 01       	movw	r24, r8
     7ce:	0e 94 41 0d 	call	0x1a82	; 0x1a82 <fillrect>
				}
			}
			line >>= 1;
     7d2:	e9 85       	ldd	r30, Y+9	; 0x09
     7d4:	e6 95       	lsr	r30
     7d6:	e9 87       	std	Y+9, r30	; 0x09
     7d8:	ff ef       	ldi	r31, 0xFF	; 255
     7da:	ef 1a       	sub	r14, r31
     7dc:	ff 0a       	sbc	r15, r31
     7de:	ca 0c       	add	r12, r10
     7e0:	db 1c       	adc	r13, r11
		uint8_t line;
		if (i == 5)
			line = 0x0;
		else
			line = pgm_read_byte(font+(c*5)+i);		//read the whole line - ie the character details
		for (int8_t j = 0; j<8; j++) {
     7e2:	e4 14       	cp	r14, r4
     7e4:	f5 04       	cpc	r15, r5
     7e6:	59 f0       	breq	.+22     	; 0x7fe <gfx_drawChar+0x116>
			if (line & 0x1) {
     7e8:	99 85       	ldd	r25, Y+9	; 0x09
     7ea:	90 fd       	sbrc	r25, 0
     7ec:	e7 cf       	rjmp	.-50     	; 0x7bc <gfx_drawChar+0xd4>
					drawPixel(x+i, y+j, color);
				else {  // big size
					fillrect(x+(i*size), y+(j*size), size, size, color);
				}
			} 
			else if (bg != color) {
     7ee:	62 14       	cp	r6, r2
     7f0:	73 04       	cpc	r7, r3
     7f2:	79 f3       	breq	.-34     	; 0x7d2 <gfx_drawChar+0xea>
				if (size == 1) // default size
     7f4:	b8 85       	ldd	r27, Y+8	; 0x08
     7f6:	b1 30       	cpi	r27, 0x01	; 1
     7f8:	69 f1       	breq	.+90     	; 0x854 <gfx_drawChar+0x16c>
					drawPixel(x+i, y+j, bg);
				else
				{  // big size
					fillrect(x+i*size, y+j*size, size, size, bg);
     7fa:	81 01       	movw	r16, r2
     7fc:	e4 cf       	rjmp	.-56     	; 0x7c6 <gfx_drawChar+0xde>
     7fe:	18 85       	ldd	r17, Y+8	; 0x08
     800:	5b 81       	ldd	r21, Y+3	; 0x03
     802:	5f 5f       	subi	r21, 0xFF	; 255
     804:	5b 83       	std	Y+3, r21	; 0x03
     806:	89 81       	ldd	r24, Y+1	; 0x01
     808:	9a 81       	ldd	r25, Y+2	; 0x02
     80a:	01 96       	adiw	r24, 0x01	; 1
     80c:	89 83       	std	Y+1, r24	; 0x01
     80e:	9a 83       	std	Y+2, r25	; 0x02
     810:	8a 0c       	add	r8, r10
     812:	9b 1c       	adc	r9, r11
void gfx_drawChar(int16_t x, int16_t y, char c, uint16_t color, uint16_t bg, uint8_t size){
	
	if((x >=width) || (y >=height) || ((x + 6 * size - 1) < 0) || ((y + 8 * size - 1) < 0)){   //if location exceeds the size of the screen, return
		return;
	}
	for (int8_t i=0; i<6; i++ ) {
     814:	56 30       	cpi	r21, 0x06	; 6
     816:	09 f0       	breq	.+2      	; 0x81a <gfx_drawChar+0x132>
     818:	be cf       	rjmp	.-132    	; 0x796 <gfx_drawChar+0xae>
				}
			}
			line >>= 1;
		}
	}
}
     81a:	29 96       	adiw	r28, 0x09	; 9
     81c:	cd bf       	out	0x3d, r28	; 61
     81e:	de bf       	out	0x3e, r29	; 62
     820:	df 91       	pop	r29
     822:	cf 91       	pop	r28
     824:	1f 91       	pop	r17
     826:	0f 91       	pop	r16
     828:	ff 90       	pop	r15
     82a:	ef 90       	pop	r14
     82c:	df 90       	pop	r13
     82e:	cf 90       	pop	r12
     830:	bf 90       	pop	r11
     832:	af 90       	pop	r10
     834:	9f 90       	pop	r9
     836:	8f 90       	pop	r8
     838:	7f 90       	pop	r7
     83a:	6f 90       	pop	r6
     83c:	5f 90       	pop	r5
     83e:	4f 90       	pop	r4
     840:	3f 90       	pop	r3
     842:	2f 90       	pop	r2
     844:	08 95       	ret
		else
			line = pgm_read_byte(font+(c*5)+i);		//read the whole line - ie the character details
		for (int8_t j = 0; j<8; j++) {
			if (line & 0x1) {
				if (size == 1) // default size
					drawPixel(x+i, y+j, color);
     846:	a3 01       	movw	r20, r6
     848:	b7 01       	movw	r22, r14
     84a:	89 81       	ldd	r24, Y+1	; 0x01
     84c:	9a 81       	ldd	r25, Y+2	; 0x02
     84e:	0e 94 20 0d 	call	0x1a40	; 0x1a40 <drawPixel>
     852:	bf cf       	rjmp	.-130    	; 0x7d2 <gfx_drawChar+0xea>
					fillrect(x+(i*size), y+(j*size), size, size, color);
				}
			} 
			else if (bg != color) {
				if (size == 1) // default size
					drawPixel(x+i, y+j, bg);
     854:	a1 01       	movw	r20, r2
     856:	b7 01       	movw	r22, r14
     858:	89 81       	ldd	r24, Y+1	; 0x01
     85a:	9a 81       	ldd	r25, Y+2	; 0x02
     85c:	0e 94 20 0d 	call	0x1a40	; 0x1a40 <drawPixel>
     860:	b8 cf       	rjmp	.-144    	; 0x7d2 <gfx_drawChar+0xea>
		return;
	}
	for (int8_t i=0; i<6; i++ ) {
		uint8_t line;
		if (i == 5)
			line = 0x0;
     862:	00 e0       	ldi	r16, 0x00	; 0
     864:	a5 cf       	rjmp	.-182    	; 0x7b0 <gfx_drawChar+0xc8>

00000866 <gfx_setCursor>:
			line >>= 1;
		}
	}
}
void gfx_setCursor(uint16_t x, uint16_t y){
	cursor_x =x;
     866:	80 93 45 20 	sts	0x2045, r24	; 0x802045 <cursor_x>
     86a:	90 93 46 20 	sts	0x2046, r25	; 0x802046 <cursor_x+0x1>
	cursor_y = y;
     86e:	60 93 37 20 	sts	0x2037, r22	; 0x802037 <cursor_y>
     872:	70 93 38 20 	sts	0x2038, r23	; 0x802038 <cursor_y+0x1>
     876:	08 95       	ret

00000878 <gfx_setTextColor>:
}
void gfx_setTextColor(uint16_t color){
	textColor = color;
     878:	80 93 39 20 	sts	0x2039, r24	; 0x802039 <textColor>
     87c:	90 93 3a 20 	sts	0x203A, r25	; 0x80203a <textColor+0x1>
     880:	08 95       	ret

00000882 <gfx_setBgColor>:
}
void gfx_setBgColor(uint16_t color){
	bgcolor = color;
     882:	80 93 3b 20 	sts	0x203B, r24	; 0x80203b <bgcolor>
     886:	90 93 3c 20 	sts	0x203C, r25	; 0x80203c <bgcolor+0x1>
     88a:	08 95       	ret

0000088c <gfx_setTextSize>:
}
void gfx_setTextSize(uint8_t size){
	textSize = size;
     88c:	80 93 34 20 	sts	0x2034, r24	; 0x802034 <textSize>
     890:	08 95       	ret

00000892 <gfx_write>:
		{
			break;
		}
	}
}
void gfx_write(char c){
     892:	ef 92       	push	r14
     894:	0f 93       	push	r16
     896:	1f 93       	push	r17
	if (c == '\n') {
     898:	8a 30       	cpi	r24, 0x0A	; 10
     89a:	51 f1       	breq	.+84     	; 0x8f0 <gfx_write+0x5e>
		cursor_y += textSize*8;
		cursor_x  = 0;
		} else if (c == '\r') {
     89c:	8d 30       	cpi	r24, 0x0D	; 13
     89e:	21 f1       	breq	.+72     	; 0x8e8 <gfx_write+0x56>
     8a0:	48 2f       	mov	r20, r24
		// skip em
	}
	else
	{
		gfx_drawChar(cursor_x, cursor_y, c, textColor, bgcolor, textSize);
     8a2:	00 91 3b 20 	lds	r16, 0x203B	; 0x80203b <bgcolor>
     8a6:	10 91 3c 20 	lds	r17, 0x203C	; 0x80203c <bgcolor+0x1>
     8aa:	20 91 39 20 	lds	r18, 0x2039	; 0x802039 <textColor>
     8ae:	30 91 3a 20 	lds	r19, 0x203A	; 0x80203a <textColor+0x1>
     8b2:	60 91 37 20 	lds	r22, 0x2037	; 0x802037 <cursor_y>
     8b6:	70 91 38 20 	lds	r23, 0x2038	; 0x802038 <cursor_y+0x1>
     8ba:	e0 90 34 20 	lds	r14, 0x2034	; 0x802034 <textSize>
     8be:	80 91 45 20 	lds	r24, 0x2045	; 0x802045 <cursor_x>
     8c2:	90 91 46 20 	lds	r25, 0x2046	; 0x802046 <cursor_x+0x1>
     8c6:	0e 94 74 03 	call	0x6e8	; 0x6e8 <gfx_drawChar>
		cursor_x += textSize*6;
     8ca:	20 91 34 20 	lds	r18, 0x2034	; 0x802034 <textSize>
     8ce:	80 91 45 20 	lds	r24, 0x2045	; 0x802045 <cursor_x>
     8d2:	90 91 46 20 	lds	r25, 0x2046	; 0x802046 <cursor_x+0x1>
     8d6:	36 e0       	ldi	r19, 0x06	; 6
     8d8:	23 9f       	mul	r18, r19
     8da:	80 0d       	add	r24, r0
     8dc:	91 1d       	adc	r25, r1
     8de:	11 24       	eor	r1, r1
     8e0:	80 93 45 20 	sts	0x2045, r24	; 0x802045 <cursor_x>
     8e4:	90 93 46 20 	sts	0x2046, r25	; 0x802046 <cursor_x+0x1>
	}
}
     8e8:	1f 91       	pop	r17
     8ea:	0f 91       	pop	r16
     8ec:	ef 90       	pop	r14
     8ee:	08 95       	ret
		}
	}
}
void gfx_write(char c){
	if (c == '\n') {
		cursor_y += textSize*8;
     8f0:	20 91 34 20 	lds	r18, 0x2034	; 0x802034 <textSize>
     8f4:	80 91 37 20 	lds	r24, 0x2037	; 0x802037 <cursor_y>
     8f8:	90 91 38 20 	lds	r25, 0x2038	; 0x802038 <cursor_y+0x1>
     8fc:	38 e0       	ldi	r19, 0x08	; 8
     8fe:	23 9f       	mul	r18, r19
     900:	80 0d       	add	r24, r0
     902:	91 1d       	adc	r25, r1
     904:	11 24       	eor	r1, r1
     906:	80 93 37 20 	sts	0x2037, r24	; 0x802037 <cursor_y>
     90a:	90 93 38 20 	sts	0x2038, r25	; 0x802038 <cursor_y+0x1>
		cursor_x  = 0;
     90e:	10 92 45 20 	sts	0x2045, r1	; 0x802045 <cursor_x>
     912:	10 92 46 20 	sts	0x2046, r1	; 0x802046 <cursor_x+0x1>
	else
	{
		gfx_drawChar(cursor_x, cursor_y, c, textColor, bgcolor, textSize);
		cursor_x += textSize*6;
	}
}
     916:	1f 91       	pop	r17
     918:	0f 91       	pop	r16
     91a:	ef 90       	pop	r14
     91c:	08 95       	ret

0000091e <gfx_print>:
	bgcolor = color;
}
void gfx_setTextSize(uint8_t size){
	textSize = size;
}
void gfx_print(char *string){
     91e:	0f 93       	push	r16
     920:	1f 93       	push	r17
     922:	cf 93       	push	r28
     924:	df 93       	push	r29
     926:	fc 01       	movw	r30, r24
		char *i;
		for (i=string; *i; i++) {
     928:	80 81       	ld	r24, Z
     92a:	88 23       	and	r24, r24
     92c:	61 f0       	breq	.+24     	; 0x946 <gfx_print+0x28>
     92e:	8f 01       	movw	r16, r30
     930:	ef 01       	movw	r28, r30
     932:	21 96       	adiw	r28, 0x01	; 1
     934:	03 c0       	rjmp	.+6      	; 0x93c <gfx_print+0x1e>
     936:	89 91       	ld	r24, Y+
     938:	88 23       	and	r24, r24
     93a:	29 f0       	breq	.+10     	; 0x946 <gfx_print+0x28>
			//write the char'
			gfx_write(*i);
     93c:	0e 94 49 04 	call	0x892	; 0x892 <gfx_write>
			if(string =='\0')
     940:	01 15       	cp	r16, r1
     942:	11 05       	cpc	r17, r1
     944:	c1 f7       	brne	.-16     	; 0x936 <gfx_print+0x18>
			{
				break;
			}
		} 
}
     946:	df 91       	pop	r29
     948:	cf 91       	pop	r28
     94a:	1f 91       	pop	r17
     94c:	0f 91       	pop	r16
     94e:	08 95       	ret

00000950 <setup32>:
			{
				uint16_t colorx = rand();
				pushColor(colorx);
			}
		}
}
     950:	88 ed       	ldi	r24, 0xD8	; 216
     952:	84 bf       	out	0x34, r24	; 52
     954:	80 91 50 00 	lds	r24, 0x0050	; 0x800050 <__TEXT_REGION_LENGTH__+0x700050>
     958:	80 62       	ori	r24, 0x20	; 32
     95a:	80 93 50 00 	sts	0x0050, r24	; 0x800050 <__TEXT_REGION_LENGTH__+0x700050>
     95e:	80 91 51 00 	lds	r24, 0x0051	; 0x800051 <__TEXT_REGION_LENGTH__+0x700051>
     962:	85 ff       	sbrs	r24, 5
     964:	fc cf       	rjmp	.-8      	; 0x95e <setup32+0xe>
     966:	88 ed       	ldi	r24, 0xD8	; 216
     968:	84 bf       	out	0x34, r24	; 52
     96a:	10 92 40 00 	sts	0x0040, r1	; 0x800040 <__TEXT_REGION_LENGTH__+0x700040>
     96e:	80 e4       	ldi	r24, 0x40	; 64
     970:	80 93 55 00 	sts	0x0055, r24	; 0x800055 <__TEXT_REGION_LENGTH__+0x700055>
     974:	87 e1       	ldi	r24, 0x17	; 23
     976:	80 93 55 00 	sts	0x0055, r24	; 0x800055 <__TEXT_REGION_LENGTH__+0x700055>
     97a:	80 e1       	ldi	r24, 0x10	; 16
     97c:	80 93 50 00 	sts	0x0050, r24	; 0x800050 <__TEXT_REGION_LENGTH__+0x700050>
     980:	80 91 51 00 	lds	r24, 0x0051	; 0x800051 <__TEXT_REGION_LENGTH__+0x700051>
     984:	84 ff       	sbrs	r24, 4
     986:	fc cf       	rjmp	.-8      	; 0x980 <setup32+0x30>
     988:	88 ed       	ldi	r24, 0xD8	; 216
     98a:	84 bf       	out	0x34, r24	; 52
     98c:	84 e0       	ldi	r24, 0x04	; 4
     98e:	80 93 40 00 	sts	0x0040, r24	; 0x800040 <__TEXT_REGION_LENGTH__+0x700040>
     992:	08 95       	ret

00000994 <spi_init_hardware>:
     994:	e0 e4       	ldi	r30, 0x40	; 64
     996:	f6 e0       	ldi	r31, 0x06	; 6
     998:	80 81       	ld	r24, Z
     99a:	8c 60       	ori	r24, 0x0C	; 12
     99c:	80 83       	st	Z, r24
     99e:	e4 e4       	ldi	r30, 0x44	; 68
     9a0:	f6 e0       	ldi	r31, 0x06	; 6
     9a2:	80 81       	ld	r24, Z
     9a4:	84 60       	ori	r24, 0x04	; 4
     9a6:	80 83       	st	Z, r24
     9a8:	0c 94 a8 04 	jmp	0x950	; 0x950 <setup32>

000009ac <setAddress>:
     9ac:	e0 91 44 06 	lds	r30, 0x0644	; 0x800644 <__TEXT_REGION_LENGTH__+0x700644>
     9b0:	e7 7e       	andi	r30, 0xE7	; 231
     9b2:	e0 93 44 06 	sts	0x0644, r30	; 0x800644 <__TEXT_REGION_LENGTH__+0x700644>
     9b6:	ea e2       	ldi	r30, 0x2A	; 42
     9b8:	e0 93 e3 08 	sts	0x08E3, r30	; 0x8008e3 <__TEXT_REGION_LENGTH__+0x7008e3>
     9bc:	e0 91 e2 08 	lds	r30, 0x08E2	; 0x8008e2 <__TEXT_REGION_LENGTH__+0x7008e2>
     9c0:	e7 ff       	sbrs	r30, 7
     9c2:	fc cf       	rjmp	.-8      	; 0x9bc <setAddress+0x10>
     9c4:	e0 91 44 06 	lds	r30, 0x0644	; 0x800644 <__TEXT_REGION_LENGTH__+0x700644>
     9c8:	e0 61       	ori	r30, 0x10	; 16
     9ca:	e0 93 44 06 	sts	0x0644, r30	; 0x800644 <__TEXT_REGION_LENGTH__+0x700644>
     9ce:	e0 91 44 06 	lds	r30, 0x0644	; 0x800644 <__TEXT_REGION_LENGTH__+0x700644>
     9d2:	e8 60       	ori	r30, 0x08	; 8
     9d4:	e0 93 44 06 	sts	0x0644, r30	; 0x800644 <__TEXT_REGION_LENGTH__+0x700644>
     9d8:	e0 91 44 06 	lds	r30, 0x0644	; 0x800644 <__TEXT_REGION_LENGTH__+0x700644>
     9dc:	ef 7e       	andi	r30, 0xEF	; 239
     9de:	e0 93 44 06 	sts	0x0644, r30	; 0x800644 <__TEXT_REGION_LENGTH__+0x700644>
     9e2:	90 93 e3 08 	sts	0x08E3, r25	; 0x8008e3 <__TEXT_REGION_LENGTH__+0x7008e3>
     9e6:	90 91 e2 08 	lds	r25, 0x08E2	; 0x8008e2 <__TEXT_REGION_LENGTH__+0x7008e2>
     9ea:	97 ff       	sbrs	r25, 7
     9ec:	fc cf       	rjmp	.-8      	; 0x9e6 <setAddress+0x3a>
     9ee:	90 91 44 06 	lds	r25, 0x0644	; 0x800644 <__TEXT_REGION_LENGTH__+0x700644>
     9f2:	90 61       	ori	r25, 0x10	; 16
     9f4:	90 93 44 06 	sts	0x0644, r25	; 0x800644 <__TEXT_REGION_LENGTH__+0x700644>
     9f8:	90 91 44 06 	lds	r25, 0x0644	; 0x800644 <__TEXT_REGION_LENGTH__+0x700644>
     9fc:	98 60       	ori	r25, 0x08	; 8
     9fe:	90 93 44 06 	sts	0x0644, r25	; 0x800644 <__TEXT_REGION_LENGTH__+0x700644>
     a02:	90 91 44 06 	lds	r25, 0x0644	; 0x800644 <__TEXT_REGION_LENGTH__+0x700644>
     a06:	9f 7e       	andi	r25, 0xEF	; 239
     a08:	90 93 44 06 	sts	0x0644, r25	; 0x800644 <__TEXT_REGION_LENGTH__+0x700644>
     a0c:	80 93 e3 08 	sts	0x08E3, r24	; 0x8008e3 <__TEXT_REGION_LENGTH__+0x7008e3>
     a10:	80 91 e2 08 	lds	r24, 0x08E2	; 0x8008e2 <__TEXT_REGION_LENGTH__+0x7008e2>
     a14:	87 ff       	sbrs	r24, 7
     a16:	fc cf       	rjmp	.-8      	; 0xa10 <setAddress+0x64>
     a18:	80 91 44 06 	lds	r24, 0x0644	; 0x800644 <__TEXT_REGION_LENGTH__+0x700644>
     a1c:	80 61       	ori	r24, 0x10	; 16
     a1e:	80 93 44 06 	sts	0x0644, r24	; 0x800644 <__TEXT_REGION_LENGTH__+0x700644>
     a22:	80 91 44 06 	lds	r24, 0x0644	; 0x800644 <__TEXT_REGION_LENGTH__+0x700644>
     a26:	88 60       	ori	r24, 0x08	; 8
     a28:	80 93 44 06 	sts	0x0644, r24	; 0x800644 <__TEXT_REGION_LENGTH__+0x700644>
     a2c:	80 91 44 06 	lds	r24, 0x0644	; 0x800644 <__TEXT_REGION_LENGTH__+0x700644>
     a30:	8f 7e       	andi	r24, 0xEF	; 239
     a32:	80 93 44 06 	sts	0x0644, r24	; 0x800644 <__TEXT_REGION_LENGTH__+0x700644>
     a36:	50 93 e3 08 	sts	0x08E3, r21	; 0x8008e3 <__TEXT_REGION_LENGTH__+0x7008e3>
     a3a:	80 91 e2 08 	lds	r24, 0x08E2	; 0x8008e2 <__TEXT_REGION_LENGTH__+0x7008e2>
     a3e:	87 ff       	sbrs	r24, 7
     a40:	fc cf       	rjmp	.-8      	; 0xa3a <setAddress+0x8e>
     a42:	80 91 44 06 	lds	r24, 0x0644	; 0x800644 <__TEXT_REGION_LENGTH__+0x700644>
     a46:	80 61       	ori	r24, 0x10	; 16
     a48:	80 93 44 06 	sts	0x0644, r24	; 0x800644 <__TEXT_REGION_LENGTH__+0x700644>
     a4c:	80 91 44 06 	lds	r24, 0x0644	; 0x800644 <__TEXT_REGION_LENGTH__+0x700644>
     a50:	88 60       	ori	r24, 0x08	; 8
     a52:	80 93 44 06 	sts	0x0644, r24	; 0x800644 <__TEXT_REGION_LENGTH__+0x700644>
     a56:	80 91 44 06 	lds	r24, 0x0644	; 0x800644 <__TEXT_REGION_LENGTH__+0x700644>
     a5a:	8f 7e       	andi	r24, 0xEF	; 239
     a5c:	80 93 44 06 	sts	0x0644, r24	; 0x800644 <__TEXT_REGION_LENGTH__+0x700644>
     a60:	40 93 e3 08 	sts	0x08E3, r20	; 0x8008e3 <__TEXT_REGION_LENGTH__+0x7008e3>
     a64:	80 91 e2 08 	lds	r24, 0x08E2	; 0x8008e2 <__TEXT_REGION_LENGTH__+0x7008e2>
     a68:	87 ff       	sbrs	r24, 7
     a6a:	fc cf       	rjmp	.-8      	; 0xa64 <setAddress+0xb8>
     a6c:	80 91 44 06 	lds	r24, 0x0644	; 0x800644 <__TEXT_REGION_LENGTH__+0x700644>
     a70:	80 61       	ori	r24, 0x10	; 16
     a72:	80 93 44 06 	sts	0x0644, r24	; 0x800644 <__TEXT_REGION_LENGTH__+0x700644>
     a76:	80 91 44 06 	lds	r24, 0x0644	; 0x800644 <__TEXT_REGION_LENGTH__+0x700644>
     a7a:	87 7e       	andi	r24, 0xE7	; 231
     a7c:	80 93 44 06 	sts	0x0644, r24	; 0x800644 <__TEXT_REGION_LENGTH__+0x700644>
     a80:	8b e2       	ldi	r24, 0x2B	; 43
     a82:	80 93 e3 08 	sts	0x08E3, r24	; 0x8008e3 <__TEXT_REGION_LENGTH__+0x7008e3>
     a86:	80 91 e2 08 	lds	r24, 0x08E2	; 0x8008e2 <__TEXT_REGION_LENGTH__+0x7008e2>
     a8a:	87 ff       	sbrs	r24, 7
     a8c:	fc cf       	rjmp	.-8      	; 0xa86 <setAddress+0xda>
     a8e:	80 91 44 06 	lds	r24, 0x0644	; 0x800644 <__TEXT_REGION_LENGTH__+0x700644>
     a92:	80 61       	ori	r24, 0x10	; 16
     a94:	80 93 44 06 	sts	0x0644, r24	; 0x800644 <__TEXT_REGION_LENGTH__+0x700644>
     a98:	80 91 44 06 	lds	r24, 0x0644	; 0x800644 <__TEXT_REGION_LENGTH__+0x700644>
     a9c:	88 60       	ori	r24, 0x08	; 8
     a9e:	80 93 44 06 	sts	0x0644, r24	; 0x800644 <__TEXT_REGION_LENGTH__+0x700644>
     aa2:	80 91 44 06 	lds	r24, 0x0644	; 0x800644 <__TEXT_REGION_LENGTH__+0x700644>
     aa6:	8f 7e       	andi	r24, 0xEF	; 239
     aa8:	80 93 44 06 	sts	0x0644, r24	; 0x800644 <__TEXT_REGION_LENGTH__+0x700644>
     aac:	70 93 e3 08 	sts	0x08E3, r23	; 0x8008e3 <__TEXT_REGION_LENGTH__+0x7008e3>
     ab0:	80 91 e2 08 	lds	r24, 0x08E2	; 0x8008e2 <__TEXT_REGION_LENGTH__+0x7008e2>
     ab4:	87 ff       	sbrs	r24, 7
     ab6:	fc cf       	rjmp	.-8      	; 0xab0 <setAddress+0x104>
     ab8:	80 91 44 06 	lds	r24, 0x0644	; 0x800644 <__TEXT_REGION_LENGTH__+0x700644>
     abc:	80 61       	ori	r24, 0x10	; 16
     abe:	80 93 44 06 	sts	0x0644, r24	; 0x800644 <__TEXT_REGION_LENGTH__+0x700644>
     ac2:	80 91 44 06 	lds	r24, 0x0644	; 0x800644 <__TEXT_REGION_LENGTH__+0x700644>
     ac6:	88 60       	ori	r24, 0x08	; 8
     ac8:	80 93 44 06 	sts	0x0644, r24	; 0x800644 <__TEXT_REGION_LENGTH__+0x700644>
     acc:	80 91 44 06 	lds	r24, 0x0644	; 0x800644 <__TEXT_REGION_LENGTH__+0x700644>
     ad0:	8f 7e       	andi	r24, 0xEF	; 239
     ad2:	80 93 44 06 	sts	0x0644, r24	; 0x800644 <__TEXT_REGION_LENGTH__+0x700644>
     ad6:	60 93 e3 08 	sts	0x08E3, r22	; 0x8008e3 <__TEXT_REGION_LENGTH__+0x7008e3>
     ada:	80 91 e2 08 	lds	r24, 0x08E2	; 0x8008e2 <__TEXT_REGION_LENGTH__+0x7008e2>
     ade:	87 ff       	sbrs	r24, 7
     ae0:	fc cf       	rjmp	.-8      	; 0xada <setAddress+0x12e>
     ae2:	80 91 44 06 	lds	r24, 0x0644	; 0x800644 <__TEXT_REGION_LENGTH__+0x700644>
     ae6:	80 61       	ori	r24, 0x10	; 16
     ae8:	80 93 44 06 	sts	0x0644, r24	; 0x800644 <__TEXT_REGION_LENGTH__+0x700644>
     aec:	80 91 44 06 	lds	r24, 0x0644	; 0x800644 <__TEXT_REGION_LENGTH__+0x700644>
     af0:	88 60       	ori	r24, 0x08	; 8
     af2:	80 93 44 06 	sts	0x0644, r24	; 0x800644 <__TEXT_REGION_LENGTH__+0x700644>
     af6:	80 91 44 06 	lds	r24, 0x0644	; 0x800644 <__TEXT_REGION_LENGTH__+0x700644>
     afa:	8f 7e       	andi	r24, 0xEF	; 239
     afc:	80 93 44 06 	sts	0x0644, r24	; 0x800644 <__TEXT_REGION_LENGTH__+0x700644>
     b00:	30 93 e3 08 	sts	0x08E3, r19	; 0x8008e3 <__TEXT_REGION_LENGTH__+0x7008e3>
     b04:	80 91 e2 08 	lds	r24, 0x08E2	; 0x8008e2 <__TEXT_REGION_LENGTH__+0x7008e2>
     b08:	87 ff       	sbrs	r24, 7
     b0a:	fc cf       	rjmp	.-8      	; 0xb04 <setAddress+0x158>
     b0c:	80 91 44 06 	lds	r24, 0x0644	; 0x800644 <__TEXT_REGION_LENGTH__+0x700644>
     b10:	80 61       	ori	r24, 0x10	; 16
     b12:	80 93 44 06 	sts	0x0644, r24	; 0x800644 <__TEXT_REGION_LENGTH__+0x700644>
     b16:	80 91 44 06 	lds	r24, 0x0644	; 0x800644 <__TEXT_REGION_LENGTH__+0x700644>
     b1a:	88 60       	ori	r24, 0x08	; 8
     b1c:	80 93 44 06 	sts	0x0644, r24	; 0x800644 <__TEXT_REGION_LENGTH__+0x700644>
     b20:	80 91 44 06 	lds	r24, 0x0644	; 0x800644 <__TEXT_REGION_LENGTH__+0x700644>
     b24:	8f 7e       	andi	r24, 0xEF	; 239
     b26:	80 93 44 06 	sts	0x0644, r24	; 0x800644 <__TEXT_REGION_LENGTH__+0x700644>
     b2a:	20 93 e3 08 	sts	0x08E3, r18	; 0x8008e3 <__TEXT_REGION_LENGTH__+0x7008e3>
     b2e:	80 91 e2 08 	lds	r24, 0x08E2	; 0x8008e2 <__TEXT_REGION_LENGTH__+0x7008e2>
     b32:	87 ff       	sbrs	r24, 7
     b34:	fc cf       	rjmp	.-8      	; 0xb2e <setAddress+0x182>
     b36:	80 91 44 06 	lds	r24, 0x0644	; 0x800644 <__TEXT_REGION_LENGTH__+0x700644>
     b3a:	80 61       	ori	r24, 0x10	; 16
     b3c:	80 93 44 06 	sts	0x0644, r24	; 0x800644 <__TEXT_REGION_LENGTH__+0x700644>
     b40:	80 91 44 06 	lds	r24, 0x0644	; 0x800644 <__TEXT_REGION_LENGTH__+0x700644>
     b44:	87 7e       	andi	r24, 0xE7	; 231
     b46:	80 93 44 06 	sts	0x0644, r24	; 0x800644 <__TEXT_REGION_LENGTH__+0x700644>
     b4a:	8c e2       	ldi	r24, 0x2C	; 44
     b4c:	80 93 e3 08 	sts	0x08E3, r24	; 0x8008e3 <__TEXT_REGION_LENGTH__+0x7008e3>
     b50:	80 91 e2 08 	lds	r24, 0x08E2	; 0x8008e2 <__TEXT_REGION_LENGTH__+0x7008e2>
     b54:	87 ff       	sbrs	r24, 7
     b56:	fc cf       	rjmp	.-8      	; 0xb50 <setAddress+0x1a4>
     b58:	80 91 44 06 	lds	r24, 0x0644	; 0x800644 <__TEXT_REGION_LENGTH__+0x700644>
     b5c:	80 61       	ori	r24, 0x10	; 16
     b5e:	80 93 44 06 	sts	0x0644, r24	; 0x800644 <__TEXT_REGION_LENGTH__+0x700644>
     b62:	08 95       	ret

00000b64 <begin>:
     b64:	80 ef       	ldi	r24, 0xF0	; 240
     b66:	90 e0       	ldi	r25, 0x00	; 0
     b68:	80 93 4b 20 	sts	0x204B, r24	; 0x80204b <width>
     b6c:	90 93 4c 20 	sts	0x204C, r25	; 0x80204c <width+0x1>
     b70:	80 e4       	ldi	r24, 0x40	; 64
     b72:	91 e0       	ldi	r25, 0x01	; 1
     b74:	80 93 49 20 	sts	0x2049, r24	; 0x802049 <height>
     b78:	90 93 4a 20 	sts	0x204A, r25	; 0x80204a <height+0x1>
     b7c:	0e 94 ca 04 	call	0x994	; 0x994 <spi_init_hardware>
     b80:	80 91 40 06 	lds	r24, 0x0640	; 0x800640 <__TEXT_REGION_LENGTH__+0x700640>
     b84:	80 6b       	ori	r24, 0xB0	; 176
     b86:	80 93 40 06 	sts	0x0640, r24	; 0x800640 <__TEXT_REGION_LENGTH__+0x700640>
     b8a:	80 91 e0 08 	lds	r24, 0x08E0	; 0x8008e0 <__TEXT_REGION_LENGTH__+0x7008e0>
     b8e:	80 65       	ori	r24, 0x50	; 80
     b90:	80 93 e0 08 	sts	0x08E0, r24	; 0x8008e0 <__TEXT_REGION_LENGTH__+0x7008e0>
     b94:	80 91 e0 08 	lds	r24, 0x08E0	; 0x8008e0 <__TEXT_REGION_LENGTH__+0x7008e0>
     b98:	80 68       	ori	r24, 0x80	; 128
     b9a:	80 93 e0 08 	sts	0x08E0, r24	; 0x8008e0 <__TEXT_REGION_LENGTH__+0x7008e0>
     b9e:	80 91 44 06 	lds	r24, 0x0644	; 0x800644 <__TEXT_REGION_LENGTH__+0x700644>
     ba2:	80 61       	ori	r24, 0x10	; 16
     ba4:	80 93 44 06 	sts	0x0644, r24	; 0x800644 <__TEXT_REGION_LENGTH__+0x700644>
     ba8:	80 91 44 06 	lds	r24, 0x0644	; 0x800644 <__TEXT_REGION_LENGTH__+0x700644>
     bac:	84 60       	ori	r24, 0x04	; 4
     bae:	80 93 44 06 	sts	0x0644, r24	; 0x800644 <__TEXT_REGION_LENGTH__+0x700644>
     bb2:	22 e4       	ldi	r18, 0x42	; 66
     bb4:	2a 95       	dec	r18
     bb6:	f1 f7       	brne	.-4      	; 0xbb4 <begin+0x50>
     bb8:	00 c0       	rjmp	.+0      	; 0xbba <begin+0x56>
     bba:	80 91 44 06 	lds	r24, 0x0644	; 0x800644 <__TEXT_REGION_LENGTH__+0x700644>
     bbe:	8b 7f       	andi	r24, 0xFB	; 251
     bc0:	80 93 44 06 	sts	0x0644, r24	; 0x800644 <__TEXT_REGION_LENGTH__+0x700644>
     bc4:	82 e4       	ldi	r24, 0x42	; 66
     bc6:	8a 95       	dec	r24
     bc8:	f1 f7       	brne	.-4      	; 0xbc6 <begin+0x62>
     bca:	00 c0       	rjmp	.+0      	; 0xbcc <begin+0x68>
     bcc:	80 91 44 06 	lds	r24, 0x0644	; 0x800644 <__TEXT_REGION_LENGTH__+0x700644>
     bd0:	84 60       	ori	r24, 0x04	; 4
     bd2:	80 93 44 06 	sts	0x0644, r24	; 0x800644 <__TEXT_REGION_LENGTH__+0x700644>
     bd6:	92 e4       	ldi	r25, 0x42	; 66
     bd8:	9a 95       	dec	r25
     bda:	f1 f7       	brne	.-4      	; 0xbd8 <begin+0x74>
     bdc:	00 c0       	rjmp	.+0      	; 0xbde <begin+0x7a>
     bde:	80 91 44 06 	lds	r24, 0x0644	; 0x800644 <__TEXT_REGION_LENGTH__+0x700644>
     be2:	87 7e       	andi	r24, 0xE7	; 231
     be4:	80 93 44 06 	sts	0x0644, r24	; 0x800644 <__TEXT_REGION_LENGTH__+0x700644>
     be8:	81 e0       	ldi	r24, 0x01	; 1
     bea:	80 93 e3 08 	sts	0x08E3, r24	; 0x8008e3 <__TEXT_REGION_LENGTH__+0x7008e3>
     bee:	80 91 e2 08 	lds	r24, 0x08E2	; 0x8008e2 <__TEXT_REGION_LENGTH__+0x7008e2>
     bf2:	87 ff       	sbrs	r24, 7
     bf4:	fc cf       	rjmp	.-8      	; 0xbee <begin+0x8a>
     bf6:	80 91 44 06 	lds	r24, 0x0644	; 0x800644 <__TEXT_REGION_LENGTH__+0x700644>
     bfa:	80 61       	ori	r24, 0x10	; 16
     bfc:	80 93 44 06 	sts	0x0644, r24	; 0x800644 <__TEXT_REGION_LENGTH__+0x700644>
     c00:	2f e7       	ldi	r18, 0x7F	; 127
     c02:	89 ea       	ldi	r24, 0xA9	; 169
     c04:	93 e0       	ldi	r25, 0x03	; 3
     c06:	21 50       	subi	r18, 0x01	; 1
     c08:	80 40       	sbci	r24, 0x00	; 0
     c0a:	90 40       	sbci	r25, 0x00	; 0
     c0c:	e1 f7       	brne	.-8      	; 0xc06 <begin+0xa2>
     c0e:	00 c0       	rjmp	.+0      	; 0xc10 <begin+0xac>
     c10:	00 00       	nop
     c12:	80 91 44 06 	lds	r24, 0x0644	; 0x800644 <__TEXT_REGION_LENGTH__+0x700644>
     c16:	87 7e       	andi	r24, 0xE7	; 231
     c18:	80 93 44 06 	sts	0x0644, r24	; 0x800644 <__TEXT_REGION_LENGTH__+0x700644>
     c1c:	8b ec       	ldi	r24, 0xCB	; 203
     c1e:	80 93 e3 08 	sts	0x08E3, r24	; 0x8008e3 <__TEXT_REGION_LENGTH__+0x7008e3>
     c22:	80 91 e2 08 	lds	r24, 0x08E2	; 0x8008e2 <__TEXT_REGION_LENGTH__+0x7008e2>
     c26:	87 ff       	sbrs	r24, 7
     c28:	fc cf       	rjmp	.-8      	; 0xc22 <begin+0xbe>
     c2a:	80 91 44 06 	lds	r24, 0x0644	; 0x800644 <__TEXT_REGION_LENGTH__+0x700644>
     c2e:	80 61       	ori	r24, 0x10	; 16
     c30:	80 93 44 06 	sts	0x0644, r24	; 0x800644 <__TEXT_REGION_LENGTH__+0x700644>
     c34:	80 91 44 06 	lds	r24, 0x0644	; 0x800644 <__TEXT_REGION_LENGTH__+0x700644>
     c38:	88 60       	ori	r24, 0x08	; 8
     c3a:	80 93 44 06 	sts	0x0644, r24	; 0x800644 <__TEXT_REGION_LENGTH__+0x700644>
     c3e:	80 91 44 06 	lds	r24, 0x0644	; 0x800644 <__TEXT_REGION_LENGTH__+0x700644>
     c42:	8f 7e       	andi	r24, 0xEF	; 239
     c44:	80 93 44 06 	sts	0x0644, r24	; 0x800644 <__TEXT_REGION_LENGTH__+0x700644>
     c48:	89 e3       	ldi	r24, 0x39	; 57
     c4a:	80 93 e3 08 	sts	0x08E3, r24	; 0x8008e3 <__TEXT_REGION_LENGTH__+0x7008e3>
     c4e:	80 91 e2 08 	lds	r24, 0x08E2	; 0x8008e2 <__TEXT_REGION_LENGTH__+0x7008e2>
     c52:	87 ff       	sbrs	r24, 7
     c54:	fc cf       	rjmp	.-8      	; 0xc4e <begin+0xea>
     c56:	80 91 44 06 	lds	r24, 0x0644	; 0x800644 <__TEXT_REGION_LENGTH__+0x700644>
     c5a:	80 61       	ori	r24, 0x10	; 16
     c5c:	80 93 44 06 	sts	0x0644, r24	; 0x800644 <__TEXT_REGION_LENGTH__+0x700644>
     c60:	80 91 44 06 	lds	r24, 0x0644	; 0x800644 <__TEXT_REGION_LENGTH__+0x700644>
     c64:	88 60       	ori	r24, 0x08	; 8
     c66:	80 93 44 06 	sts	0x0644, r24	; 0x800644 <__TEXT_REGION_LENGTH__+0x700644>
     c6a:	80 91 44 06 	lds	r24, 0x0644	; 0x800644 <__TEXT_REGION_LENGTH__+0x700644>
     c6e:	8f 7e       	andi	r24, 0xEF	; 239
     c70:	80 93 44 06 	sts	0x0644, r24	; 0x800644 <__TEXT_REGION_LENGTH__+0x700644>
     c74:	8c e2       	ldi	r24, 0x2C	; 44
     c76:	80 93 e3 08 	sts	0x08E3, r24	; 0x8008e3 <__TEXT_REGION_LENGTH__+0x7008e3>
     c7a:	80 91 e2 08 	lds	r24, 0x08E2	; 0x8008e2 <__TEXT_REGION_LENGTH__+0x7008e2>
     c7e:	87 ff       	sbrs	r24, 7
     c80:	fc cf       	rjmp	.-8      	; 0xc7a <begin+0x116>
     c82:	80 91 44 06 	lds	r24, 0x0644	; 0x800644 <__TEXT_REGION_LENGTH__+0x700644>
     c86:	80 61       	ori	r24, 0x10	; 16
     c88:	80 93 44 06 	sts	0x0644, r24	; 0x800644 <__TEXT_REGION_LENGTH__+0x700644>
     c8c:	80 91 44 06 	lds	r24, 0x0644	; 0x800644 <__TEXT_REGION_LENGTH__+0x700644>
     c90:	88 60       	ori	r24, 0x08	; 8
     c92:	80 93 44 06 	sts	0x0644, r24	; 0x800644 <__TEXT_REGION_LENGTH__+0x700644>
     c96:	80 91 44 06 	lds	r24, 0x0644	; 0x800644 <__TEXT_REGION_LENGTH__+0x700644>
     c9a:	8f 7e       	andi	r24, 0xEF	; 239
     c9c:	80 93 44 06 	sts	0x0644, r24	; 0x800644 <__TEXT_REGION_LENGTH__+0x700644>
     ca0:	10 92 e3 08 	sts	0x08E3, r1	; 0x8008e3 <__TEXT_REGION_LENGTH__+0x7008e3>
     ca4:	80 91 e2 08 	lds	r24, 0x08E2	; 0x8008e2 <__TEXT_REGION_LENGTH__+0x7008e2>
     ca8:	87 ff       	sbrs	r24, 7
     caa:	fc cf       	rjmp	.-8      	; 0xca4 <begin+0x140>
     cac:	80 91 44 06 	lds	r24, 0x0644	; 0x800644 <__TEXT_REGION_LENGTH__+0x700644>
     cb0:	80 61       	ori	r24, 0x10	; 16
     cb2:	80 93 44 06 	sts	0x0644, r24	; 0x800644 <__TEXT_REGION_LENGTH__+0x700644>
     cb6:	80 91 44 06 	lds	r24, 0x0644	; 0x800644 <__TEXT_REGION_LENGTH__+0x700644>
     cba:	88 60       	ori	r24, 0x08	; 8
     cbc:	80 93 44 06 	sts	0x0644, r24	; 0x800644 <__TEXT_REGION_LENGTH__+0x700644>
     cc0:	80 91 44 06 	lds	r24, 0x0644	; 0x800644 <__TEXT_REGION_LENGTH__+0x700644>
     cc4:	8f 7e       	andi	r24, 0xEF	; 239
     cc6:	80 93 44 06 	sts	0x0644, r24	; 0x800644 <__TEXT_REGION_LENGTH__+0x700644>
     cca:	84 e3       	ldi	r24, 0x34	; 52
     ccc:	80 93 e3 08 	sts	0x08E3, r24	; 0x8008e3 <__TEXT_REGION_LENGTH__+0x7008e3>
     cd0:	80 91 e2 08 	lds	r24, 0x08E2	; 0x8008e2 <__TEXT_REGION_LENGTH__+0x7008e2>
     cd4:	87 ff       	sbrs	r24, 7
     cd6:	fc cf       	rjmp	.-8      	; 0xcd0 <begin+0x16c>
     cd8:	80 91 44 06 	lds	r24, 0x0644	; 0x800644 <__TEXT_REGION_LENGTH__+0x700644>
     cdc:	80 61       	ori	r24, 0x10	; 16
     cde:	80 93 44 06 	sts	0x0644, r24	; 0x800644 <__TEXT_REGION_LENGTH__+0x700644>
     ce2:	80 91 44 06 	lds	r24, 0x0644	; 0x800644 <__TEXT_REGION_LENGTH__+0x700644>
     ce6:	88 60       	ori	r24, 0x08	; 8
     ce8:	80 93 44 06 	sts	0x0644, r24	; 0x800644 <__TEXT_REGION_LENGTH__+0x700644>
     cec:	80 91 44 06 	lds	r24, 0x0644	; 0x800644 <__TEXT_REGION_LENGTH__+0x700644>
     cf0:	8f 7e       	andi	r24, 0xEF	; 239
     cf2:	80 93 44 06 	sts	0x0644, r24	; 0x800644 <__TEXT_REGION_LENGTH__+0x700644>
     cf6:	82 e0       	ldi	r24, 0x02	; 2
     cf8:	80 93 e3 08 	sts	0x08E3, r24	; 0x8008e3 <__TEXT_REGION_LENGTH__+0x7008e3>
     cfc:	80 91 e2 08 	lds	r24, 0x08E2	; 0x8008e2 <__TEXT_REGION_LENGTH__+0x7008e2>
     d00:	87 ff       	sbrs	r24, 7
     d02:	fc cf       	rjmp	.-8      	; 0xcfc <begin+0x198>
     d04:	80 91 44 06 	lds	r24, 0x0644	; 0x800644 <__TEXT_REGION_LENGTH__+0x700644>
     d08:	80 61       	ori	r24, 0x10	; 16
     d0a:	80 93 44 06 	sts	0x0644, r24	; 0x800644 <__TEXT_REGION_LENGTH__+0x700644>
     d0e:	80 91 44 06 	lds	r24, 0x0644	; 0x800644 <__TEXT_REGION_LENGTH__+0x700644>
     d12:	87 7e       	andi	r24, 0xE7	; 231
     d14:	80 93 44 06 	sts	0x0644, r24	; 0x800644 <__TEXT_REGION_LENGTH__+0x700644>
     d18:	8f ec       	ldi	r24, 0xCF	; 207
     d1a:	80 93 e3 08 	sts	0x08E3, r24	; 0x8008e3 <__TEXT_REGION_LENGTH__+0x7008e3>
     d1e:	80 91 e2 08 	lds	r24, 0x08E2	; 0x8008e2 <__TEXT_REGION_LENGTH__+0x7008e2>
     d22:	87 ff       	sbrs	r24, 7
     d24:	fc cf       	rjmp	.-8      	; 0xd1e <begin+0x1ba>
     d26:	80 91 44 06 	lds	r24, 0x0644	; 0x800644 <__TEXT_REGION_LENGTH__+0x700644>
     d2a:	80 61       	ori	r24, 0x10	; 16
     d2c:	80 93 44 06 	sts	0x0644, r24	; 0x800644 <__TEXT_REGION_LENGTH__+0x700644>
     d30:	80 91 44 06 	lds	r24, 0x0644	; 0x800644 <__TEXT_REGION_LENGTH__+0x700644>
     d34:	88 60       	ori	r24, 0x08	; 8
     d36:	80 93 44 06 	sts	0x0644, r24	; 0x800644 <__TEXT_REGION_LENGTH__+0x700644>
     d3a:	80 91 44 06 	lds	r24, 0x0644	; 0x800644 <__TEXT_REGION_LENGTH__+0x700644>
     d3e:	8f 7e       	andi	r24, 0xEF	; 239
     d40:	80 93 44 06 	sts	0x0644, r24	; 0x800644 <__TEXT_REGION_LENGTH__+0x700644>
     d44:	10 92 e3 08 	sts	0x08E3, r1	; 0x8008e3 <__TEXT_REGION_LENGTH__+0x7008e3>
     d48:	80 91 e2 08 	lds	r24, 0x08E2	; 0x8008e2 <__TEXT_REGION_LENGTH__+0x7008e2>
     d4c:	87 ff       	sbrs	r24, 7
     d4e:	fc cf       	rjmp	.-8      	; 0xd48 <begin+0x1e4>
     d50:	80 91 44 06 	lds	r24, 0x0644	; 0x800644 <__TEXT_REGION_LENGTH__+0x700644>
     d54:	80 61       	ori	r24, 0x10	; 16
     d56:	80 93 44 06 	sts	0x0644, r24	; 0x800644 <__TEXT_REGION_LENGTH__+0x700644>
     d5a:	80 91 44 06 	lds	r24, 0x0644	; 0x800644 <__TEXT_REGION_LENGTH__+0x700644>
     d5e:	88 60       	ori	r24, 0x08	; 8
     d60:	80 93 44 06 	sts	0x0644, r24	; 0x800644 <__TEXT_REGION_LENGTH__+0x700644>
     d64:	80 91 44 06 	lds	r24, 0x0644	; 0x800644 <__TEXT_REGION_LENGTH__+0x700644>
     d68:	8f 7e       	andi	r24, 0xEF	; 239
     d6a:	80 93 44 06 	sts	0x0644, r24	; 0x800644 <__TEXT_REGION_LENGTH__+0x700644>
     d6e:	81 ec       	ldi	r24, 0xC1	; 193
     d70:	80 93 e3 08 	sts	0x08E3, r24	; 0x8008e3 <__TEXT_REGION_LENGTH__+0x7008e3>
     d74:	80 91 e2 08 	lds	r24, 0x08E2	; 0x8008e2 <__TEXT_REGION_LENGTH__+0x7008e2>
     d78:	87 ff       	sbrs	r24, 7
     d7a:	fc cf       	rjmp	.-8      	; 0xd74 <begin+0x210>
     d7c:	80 91 44 06 	lds	r24, 0x0644	; 0x800644 <__TEXT_REGION_LENGTH__+0x700644>
     d80:	80 61       	ori	r24, 0x10	; 16
     d82:	80 93 44 06 	sts	0x0644, r24	; 0x800644 <__TEXT_REGION_LENGTH__+0x700644>
     d86:	80 91 44 06 	lds	r24, 0x0644	; 0x800644 <__TEXT_REGION_LENGTH__+0x700644>
     d8a:	88 60       	ori	r24, 0x08	; 8
     d8c:	80 93 44 06 	sts	0x0644, r24	; 0x800644 <__TEXT_REGION_LENGTH__+0x700644>
     d90:	80 91 44 06 	lds	r24, 0x0644	; 0x800644 <__TEXT_REGION_LENGTH__+0x700644>
     d94:	8f 7e       	andi	r24, 0xEF	; 239
     d96:	80 93 44 06 	sts	0x0644, r24	; 0x800644 <__TEXT_REGION_LENGTH__+0x700644>
     d9a:	80 e3       	ldi	r24, 0x30	; 48
     d9c:	80 93 e3 08 	sts	0x08E3, r24	; 0x8008e3 <__TEXT_REGION_LENGTH__+0x7008e3>
     da0:	80 91 e2 08 	lds	r24, 0x08E2	; 0x8008e2 <__TEXT_REGION_LENGTH__+0x7008e2>
     da4:	87 ff       	sbrs	r24, 7
     da6:	fc cf       	rjmp	.-8      	; 0xda0 <begin+0x23c>
     da8:	80 91 44 06 	lds	r24, 0x0644	; 0x800644 <__TEXT_REGION_LENGTH__+0x700644>
     dac:	80 61       	ori	r24, 0x10	; 16
     dae:	80 93 44 06 	sts	0x0644, r24	; 0x800644 <__TEXT_REGION_LENGTH__+0x700644>
     db2:	80 91 44 06 	lds	r24, 0x0644	; 0x800644 <__TEXT_REGION_LENGTH__+0x700644>
     db6:	87 7e       	andi	r24, 0xE7	; 231
     db8:	80 93 44 06 	sts	0x0644, r24	; 0x800644 <__TEXT_REGION_LENGTH__+0x700644>
     dbc:	88 ee       	ldi	r24, 0xE8	; 232
     dbe:	80 93 e3 08 	sts	0x08E3, r24	; 0x8008e3 <__TEXT_REGION_LENGTH__+0x7008e3>
     dc2:	80 91 e2 08 	lds	r24, 0x08E2	; 0x8008e2 <__TEXT_REGION_LENGTH__+0x7008e2>
     dc6:	87 ff       	sbrs	r24, 7
     dc8:	fc cf       	rjmp	.-8      	; 0xdc2 <begin+0x25e>
     dca:	80 91 44 06 	lds	r24, 0x0644	; 0x800644 <__TEXT_REGION_LENGTH__+0x700644>
     dce:	80 61       	ori	r24, 0x10	; 16
     dd0:	80 93 44 06 	sts	0x0644, r24	; 0x800644 <__TEXT_REGION_LENGTH__+0x700644>
     dd4:	80 91 44 06 	lds	r24, 0x0644	; 0x800644 <__TEXT_REGION_LENGTH__+0x700644>
     dd8:	88 60       	ori	r24, 0x08	; 8
     dda:	80 93 44 06 	sts	0x0644, r24	; 0x800644 <__TEXT_REGION_LENGTH__+0x700644>
     dde:	80 91 44 06 	lds	r24, 0x0644	; 0x800644 <__TEXT_REGION_LENGTH__+0x700644>
     de2:	8f 7e       	andi	r24, 0xEF	; 239
     de4:	80 93 44 06 	sts	0x0644, r24	; 0x800644 <__TEXT_REGION_LENGTH__+0x700644>
     de8:	85 e8       	ldi	r24, 0x85	; 133
     dea:	80 93 e3 08 	sts	0x08E3, r24	; 0x8008e3 <__TEXT_REGION_LENGTH__+0x7008e3>
     dee:	80 91 e2 08 	lds	r24, 0x08E2	; 0x8008e2 <__TEXT_REGION_LENGTH__+0x7008e2>
     df2:	87 ff       	sbrs	r24, 7
     df4:	fc cf       	rjmp	.-8      	; 0xdee <begin+0x28a>
     df6:	80 91 44 06 	lds	r24, 0x0644	; 0x800644 <__TEXT_REGION_LENGTH__+0x700644>
     dfa:	80 61       	ori	r24, 0x10	; 16
     dfc:	80 93 44 06 	sts	0x0644, r24	; 0x800644 <__TEXT_REGION_LENGTH__+0x700644>
     e00:	80 91 44 06 	lds	r24, 0x0644	; 0x800644 <__TEXT_REGION_LENGTH__+0x700644>
     e04:	88 60       	ori	r24, 0x08	; 8
     e06:	80 93 44 06 	sts	0x0644, r24	; 0x800644 <__TEXT_REGION_LENGTH__+0x700644>
     e0a:	80 91 44 06 	lds	r24, 0x0644	; 0x800644 <__TEXT_REGION_LENGTH__+0x700644>
     e0e:	8f 7e       	andi	r24, 0xEF	; 239
     e10:	80 93 44 06 	sts	0x0644, r24	; 0x800644 <__TEXT_REGION_LENGTH__+0x700644>
     e14:	10 92 e3 08 	sts	0x08E3, r1	; 0x8008e3 <__TEXT_REGION_LENGTH__+0x7008e3>
     e18:	80 91 e2 08 	lds	r24, 0x08E2	; 0x8008e2 <__TEXT_REGION_LENGTH__+0x7008e2>
     e1c:	87 ff       	sbrs	r24, 7
     e1e:	fc cf       	rjmp	.-8      	; 0xe18 <begin+0x2b4>
     e20:	80 91 44 06 	lds	r24, 0x0644	; 0x800644 <__TEXT_REGION_LENGTH__+0x700644>
     e24:	80 61       	ori	r24, 0x10	; 16
     e26:	80 93 44 06 	sts	0x0644, r24	; 0x800644 <__TEXT_REGION_LENGTH__+0x700644>
     e2a:	80 91 44 06 	lds	r24, 0x0644	; 0x800644 <__TEXT_REGION_LENGTH__+0x700644>
     e2e:	88 60       	ori	r24, 0x08	; 8
     e30:	80 93 44 06 	sts	0x0644, r24	; 0x800644 <__TEXT_REGION_LENGTH__+0x700644>
     e34:	80 91 44 06 	lds	r24, 0x0644	; 0x800644 <__TEXT_REGION_LENGTH__+0x700644>
     e38:	8f 7e       	andi	r24, 0xEF	; 239
     e3a:	80 93 44 06 	sts	0x0644, r24	; 0x800644 <__TEXT_REGION_LENGTH__+0x700644>
     e3e:	88 e7       	ldi	r24, 0x78	; 120
     e40:	80 93 e3 08 	sts	0x08E3, r24	; 0x8008e3 <__TEXT_REGION_LENGTH__+0x7008e3>
     e44:	80 91 e2 08 	lds	r24, 0x08E2	; 0x8008e2 <__TEXT_REGION_LENGTH__+0x7008e2>
     e48:	87 ff       	sbrs	r24, 7
     e4a:	fc cf       	rjmp	.-8      	; 0xe44 <begin+0x2e0>
     e4c:	80 91 44 06 	lds	r24, 0x0644	; 0x800644 <__TEXT_REGION_LENGTH__+0x700644>
     e50:	80 61       	ori	r24, 0x10	; 16
     e52:	80 93 44 06 	sts	0x0644, r24	; 0x800644 <__TEXT_REGION_LENGTH__+0x700644>
     e56:	80 91 44 06 	lds	r24, 0x0644	; 0x800644 <__TEXT_REGION_LENGTH__+0x700644>
     e5a:	87 7e       	andi	r24, 0xE7	; 231
     e5c:	80 93 44 06 	sts	0x0644, r24	; 0x800644 <__TEXT_REGION_LENGTH__+0x700644>
     e60:	8a ee       	ldi	r24, 0xEA	; 234
     e62:	80 93 e3 08 	sts	0x08E3, r24	; 0x8008e3 <__TEXT_REGION_LENGTH__+0x7008e3>
     e66:	80 91 e2 08 	lds	r24, 0x08E2	; 0x8008e2 <__TEXT_REGION_LENGTH__+0x7008e2>
     e6a:	87 ff       	sbrs	r24, 7
     e6c:	fc cf       	rjmp	.-8      	; 0xe66 <begin+0x302>
     e6e:	80 91 44 06 	lds	r24, 0x0644	; 0x800644 <__TEXT_REGION_LENGTH__+0x700644>
     e72:	80 61       	ori	r24, 0x10	; 16
     e74:	80 93 44 06 	sts	0x0644, r24	; 0x800644 <__TEXT_REGION_LENGTH__+0x700644>
     e78:	80 91 44 06 	lds	r24, 0x0644	; 0x800644 <__TEXT_REGION_LENGTH__+0x700644>
     e7c:	88 60       	ori	r24, 0x08	; 8
     e7e:	80 93 44 06 	sts	0x0644, r24	; 0x800644 <__TEXT_REGION_LENGTH__+0x700644>
     e82:	80 91 44 06 	lds	r24, 0x0644	; 0x800644 <__TEXT_REGION_LENGTH__+0x700644>
     e86:	8f 7e       	andi	r24, 0xEF	; 239
     e88:	80 93 44 06 	sts	0x0644, r24	; 0x800644 <__TEXT_REGION_LENGTH__+0x700644>
     e8c:	10 92 e3 08 	sts	0x08E3, r1	; 0x8008e3 <__TEXT_REGION_LENGTH__+0x7008e3>
     e90:	80 91 e2 08 	lds	r24, 0x08E2	; 0x8008e2 <__TEXT_REGION_LENGTH__+0x7008e2>
     e94:	87 ff       	sbrs	r24, 7
     e96:	fc cf       	rjmp	.-8      	; 0xe90 <begin+0x32c>
     e98:	80 91 44 06 	lds	r24, 0x0644	; 0x800644 <__TEXT_REGION_LENGTH__+0x700644>
     e9c:	80 61       	ori	r24, 0x10	; 16
     e9e:	80 93 44 06 	sts	0x0644, r24	; 0x800644 <__TEXT_REGION_LENGTH__+0x700644>
     ea2:	80 91 44 06 	lds	r24, 0x0644	; 0x800644 <__TEXT_REGION_LENGTH__+0x700644>
     ea6:	88 60       	ori	r24, 0x08	; 8
     ea8:	80 93 44 06 	sts	0x0644, r24	; 0x800644 <__TEXT_REGION_LENGTH__+0x700644>
     eac:	80 91 44 06 	lds	r24, 0x0644	; 0x800644 <__TEXT_REGION_LENGTH__+0x700644>
     eb0:	8f 7e       	andi	r24, 0xEF	; 239
     eb2:	80 93 44 06 	sts	0x0644, r24	; 0x800644 <__TEXT_REGION_LENGTH__+0x700644>
     eb6:	10 92 e3 08 	sts	0x08E3, r1	; 0x8008e3 <__TEXT_REGION_LENGTH__+0x7008e3>
     eba:	80 91 e2 08 	lds	r24, 0x08E2	; 0x8008e2 <__TEXT_REGION_LENGTH__+0x7008e2>
     ebe:	87 ff       	sbrs	r24, 7
     ec0:	fc cf       	rjmp	.-8      	; 0xeba <begin+0x356>
     ec2:	80 91 44 06 	lds	r24, 0x0644	; 0x800644 <__TEXT_REGION_LENGTH__+0x700644>
     ec6:	80 61       	ori	r24, 0x10	; 16
     ec8:	80 93 44 06 	sts	0x0644, r24	; 0x800644 <__TEXT_REGION_LENGTH__+0x700644>
     ecc:	80 91 44 06 	lds	r24, 0x0644	; 0x800644 <__TEXT_REGION_LENGTH__+0x700644>
     ed0:	87 7e       	andi	r24, 0xE7	; 231
     ed2:	80 93 44 06 	sts	0x0644, r24	; 0x800644 <__TEXT_REGION_LENGTH__+0x700644>
     ed6:	8d ee       	ldi	r24, 0xED	; 237
     ed8:	80 93 e3 08 	sts	0x08E3, r24	; 0x8008e3 <__TEXT_REGION_LENGTH__+0x7008e3>
     edc:	80 91 e2 08 	lds	r24, 0x08E2	; 0x8008e2 <__TEXT_REGION_LENGTH__+0x7008e2>
     ee0:	87 ff       	sbrs	r24, 7
     ee2:	fc cf       	rjmp	.-8      	; 0xedc <begin+0x378>
     ee4:	80 91 44 06 	lds	r24, 0x0644	; 0x800644 <__TEXT_REGION_LENGTH__+0x700644>
     ee8:	80 61       	ori	r24, 0x10	; 16
     eea:	80 93 44 06 	sts	0x0644, r24	; 0x800644 <__TEXT_REGION_LENGTH__+0x700644>
     eee:	80 91 44 06 	lds	r24, 0x0644	; 0x800644 <__TEXT_REGION_LENGTH__+0x700644>
     ef2:	88 60       	ori	r24, 0x08	; 8
     ef4:	80 93 44 06 	sts	0x0644, r24	; 0x800644 <__TEXT_REGION_LENGTH__+0x700644>
     ef8:	80 91 44 06 	lds	r24, 0x0644	; 0x800644 <__TEXT_REGION_LENGTH__+0x700644>
     efc:	8f 7e       	andi	r24, 0xEF	; 239
     efe:	80 93 44 06 	sts	0x0644, r24	; 0x800644 <__TEXT_REGION_LENGTH__+0x700644>
     f02:	84 e6       	ldi	r24, 0x64	; 100
     f04:	80 93 e3 08 	sts	0x08E3, r24	; 0x8008e3 <__TEXT_REGION_LENGTH__+0x7008e3>
     f08:	80 91 e2 08 	lds	r24, 0x08E2	; 0x8008e2 <__TEXT_REGION_LENGTH__+0x7008e2>
     f0c:	87 ff       	sbrs	r24, 7
     f0e:	fc cf       	rjmp	.-8      	; 0xf08 <begin+0x3a4>
     f10:	80 91 44 06 	lds	r24, 0x0644	; 0x800644 <__TEXT_REGION_LENGTH__+0x700644>
     f14:	80 61       	ori	r24, 0x10	; 16
     f16:	80 93 44 06 	sts	0x0644, r24	; 0x800644 <__TEXT_REGION_LENGTH__+0x700644>
     f1a:	80 91 44 06 	lds	r24, 0x0644	; 0x800644 <__TEXT_REGION_LENGTH__+0x700644>
     f1e:	88 60       	ori	r24, 0x08	; 8
     f20:	80 93 44 06 	sts	0x0644, r24	; 0x800644 <__TEXT_REGION_LENGTH__+0x700644>
     f24:	80 91 44 06 	lds	r24, 0x0644	; 0x800644 <__TEXT_REGION_LENGTH__+0x700644>
     f28:	8f 7e       	andi	r24, 0xEF	; 239
     f2a:	80 93 44 06 	sts	0x0644, r24	; 0x800644 <__TEXT_REGION_LENGTH__+0x700644>
     f2e:	83 e0       	ldi	r24, 0x03	; 3
     f30:	80 93 e3 08 	sts	0x08E3, r24	; 0x8008e3 <__TEXT_REGION_LENGTH__+0x7008e3>
     f34:	80 91 e2 08 	lds	r24, 0x08E2	; 0x8008e2 <__TEXT_REGION_LENGTH__+0x7008e2>
     f38:	87 ff       	sbrs	r24, 7
     f3a:	fc cf       	rjmp	.-8      	; 0xf34 <begin+0x3d0>
     f3c:	80 91 44 06 	lds	r24, 0x0644	; 0x800644 <__TEXT_REGION_LENGTH__+0x700644>
     f40:	80 61       	ori	r24, 0x10	; 16
     f42:	80 93 44 06 	sts	0x0644, r24	; 0x800644 <__TEXT_REGION_LENGTH__+0x700644>
     f46:	80 91 44 06 	lds	r24, 0x0644	; 0x800644 <__TEXT_REGION_LENGTH__+0x700644>
     f4a:	88 60       	ori	r24, 0x08	; 8
     f4c:	80 93 44 06 	sts	0x0644, r24	; 0x800644 <__TEXT_REGION_LENGTH__+0x700644>
     f50:	80 91 44 06 	lds	r24, 0x0644	; 0x800644 <__TEXT_REGION_LENGTH__+0x700644>
     f54:	8f 7e       	andi	r24, 0xEF	; 239
     f56:	80 93 44 06 	sts	0x0644, r24	; 0x800644 <__TEXT_REGION_LENGTH__+0x700644>
     f5a:	82 e1       	ldi	r24, 0x12	; 18
     f5c:	80 93 e3 08 	sts	0x08E3, r24	; 0x8008e3 <__TEXT_REGION_LENGTH__+0x7008e3>
     f60:	80 91 e2 08 	lds	r24, 0x08E2	; 0x8008e2 <__TEXT_REGION_LENGTH__+0x7008e2>
     f64:	87 ff       	sbrs	r24, 7
     f66:	fc cf       	rjmp	.-8      	; 0xf60 <begin+0x3fc>
     f68:	80 91 44 06 	lds	r24, 0x0644	; 0x800644 <__TEXT_REGION_LENGTH__+0x700644>
     f6c:	80 61       	ori	r24, 0x10	; 16
     f6e:	80 93 44 06 	sts	0x0644, r24	; 0x800644 <__TEXT_REGION_LENGTH__+0x700644>
     f72:	80 91 44 06 	lds	r24, 0x0644	; 0x800644 <__TEXT_REGION_LENGTH__+0x700644>
     f76:	88 60       	ori	r24, 0x08	; 8
     f78:	80 93 44 06 	sts	0x0644, r24	; 0x800644 <__TEXT_REGION_LENGTH__+0x700644>
     f7c:	80 91 44 06 	lds	r24, 0x0644	; 0x800644 <__TEXT_REGION_LENGTH__+0x700644>
     f80:	8f 7e       	andi	r24, 0xEF	; 239
     f82:	80 93 44 06 	sts	0x0644, r24	; 0x800644 <__TEXT_REGION_LENGTH__+0x700644>
     f86:	81 e8       	ldi	r24, 0x81	; 129
     f88:	80 93 e3 08 	sts	0x08E3, r24	; 0x8008e3 <__TEXT_REGION_LENGTH__+0x7008e3>
     f8c:	80 91 e2 08 	lds	r24, 0x08E2	; 0x8008e2 <__TEXT_REGION_LENGTH__+0x7008e2>
     f90:	87 ff       	sbrs	r24, 7
     f92:	fc cf       	rjmp	.-8      	; 0xf8c <begin+0x428>
     f94:	80 91 44 06 	lds	r24, 0x0644	; 0x800644 <__TEXT_REGION_LENGTH__+0x700644>
     f98:	80 61       	ori	r24, 0x10	; 16
     f9a:	80 93 44 06 	sts	0x0644, r24	; 0x800644 <__TEXT_REGION_LENGTH__+0x700644>
     f9e:	80 91 44 06 	lds	r24, 0x0644	; 0x800644 <__TEXT_REGION_LENGTH__+0x700644>
     fa2:	87 7e       	andi	r24, 0xE7	; 231
     fa4:	80 93 44 06 	sts	0x0644, r24	; 0x800644 <__TEXT_REGION_LENGTH__+0x700644>
     fa8:	87 ef       	ldi	r24, 0xF7	; 247
     faa:	80 93 e3 08 	sts	0x08E3, r24	; 0x8008e3 <__TEXT_REGION_LENGTH__+0x7008e3>
     fae:	80 91 e2 08 	lds	r24, 0x08E2	; 0x8008e2 <__TEXT_REGION_LENGTH__+0x7008e2>
     fb2:	87 ff       	sbrs	r24, 7
     fb4:	fc cf       	rjmp	.-8      	; 0xfae <begin+0x44a>
     fb6:	80 91 44 06 	lds	r24, 0x0644	; 0x800644 <__TEXT_REGION_LENGTH__+0x700644>
     fba:	80 61       	ori	r24, 0x10	; 16
     fbc:	80 93 44 06 	sts	0x0644, r24	; 0x800644 <__TEXT_REGION_LENGTH__+0x700644>
     fc0:	80 91 44 06 	lds	r24, 0x0644	; 0x800644 <__TEXT_REGION_LENGTH__+0x700644>
     fc4:	88 60       	ori	r24, 0x08	; 8
     fc6:	80 93 44 06 	sts	0x0644, r24	; 0x800644 <__TEXT_REGION_LENGTH__+0x700644>
     fca:	80 91 44 06 	lds	r24, 0x0644	; 0x800644 <__TEXT_REGION_LENGTH__+0x700644>
     fce:	8f 7e       	andi	r24, 0xEF	; 239
     fd0:	80 93 44 06 	sts	0x0644, r24	; 0x800644 <__TEXT_REGION_LENGTH__+0x700644>
     fd4:	80 e2       	ldi	r24, 0x20	; 32
     fd6:	80 93 e3 08 	sts	0x08E3, r24	; 0x8008e3 <__TEXT_REGION_LENGTH__+0x7008e3>
     fda:	80 91 e2 08 	lds	r24, 0x08E2	; 0x8008e2 <__TEXT_REGION_LENGTH__+0x7008e2>
     fde:	87 ff       	sbrs	r24, 7
     fe0:	fc cf       	rjmp	.-8      	; 0xfda <begin+0x476>
     fe2:	80 91 44 06 	lds	r24, 0x0644	; 0x800644 <__TEXT_REGION_LENGTH__+0x700644>
     fe6:	80 61       	ori	r24, 0x10	; 16
     fe8:	80 93 44 06 	sts	0x0644, r24	; 0x800644 <__TEXT_REGION_LENGTH__+0x700644>
     fec:	80 91 44 06 	lds	r24, 0x0644	; 0x800644 <__TEXT_REGION_LENGTH__+0x700644>
     ff0:	87 7e       	andi	r24, 0xE7	; 231
     ff2:	80 93 44 06 	sts	0x0644, r24	; 0x800644 <__TEXT_REGION_LENGTH__+0x700644>
     ff6:	80 ec       	ldi	r24, 0xC0	; 192
     ff8:	80 93 e3 08 	sts	0x08E3, r24	; 0x8008e3 <__TEXT_REGION_LENGTH__+0x7008e3>
     ffc:	80 91 e2 08 	lds	r24, 0x08E2	; 0x8008e2 <__TEXT_REGION_LENGTH__+0x7008e2>
    1000:	87 ff       	sbrs	r24, 7
    1002:	fc cf       	rjmp	.-8      	; 0xffc <begin+0x498>
    1004:	80 91 44 06 	lds	r24, 0x0644	; 0x800644 <__TEXT_REGION_LENGTH__+0x700644>
    1008:	80 61       	ori	r24, 0x10	; 16
    100a:	80 93 44 06 	sts	0x0644, r24	; 0x800644 <__TEXT_REGION_LENGTH__+0x700644>
    100e:	80 91 44 06 	lds	r24, 0x0644	; 0x800644 <__TEXT_REGION_LENGTH__+0x700644>
    1012:	88 60       	ori	r24, 0x08	; 8
    1014:	80 93 44 06 	sts	0x0644, r24	; 0x800644 <__TEXT_REGION_LENGTH__+0x700644>
    1018:	80 91 44 06 	lds	r24, 0x0644	; 0x800644 <__TEXT_REGION_LENGTH__+0x700644>
    101c:	8f 7e       	andi	r24, 0xEF	; 239
    101e:	80 93 44 06 	sts	0x0644, r24	; 0x800644 <__TEXT_REGION_LENGTH__+0x700644>
    1022:	83 e2       	ldi	r24, 0x23	; 35
    1024:	80 93 e3 08 	sts	0x08E3, r24	; 0x8008e3 <__TEXT_REGION_LENGTH__+0x7008e3>
    1028:	80 91 e2 08 	lds	r24, 0x08E2	; 0x8008e2 <__TEXT_REGION_LENGTH__+0x7008e2>
    102c:	87 ff       	sbrs	r24, 7
    102e:	fc cf       	rjmp	.-8      	; 0x1028 <begin+0x4c4>
    1030:	80 91 44 06 	lds	r24, 0x0644	; 0x800644 <__TEXT_REGION_LENGTH__+0x700644>
    1034:	80 61       	ori	r24, 0x10	; 16
    1036:	80 93 44 06 	sts	0x0644, r24	; 0x800644 <__TEXT_REGION_LENGTH__+0x700644>
    103a:	80 91 44 06 	lds	r24, 0x0644	; 0x800644 <__TEXT_REGION_LENGTH__+0x700644>
    103e:	87 7e       	andi	r24, 0xE7	; 231
    1040:	80 93 44 06 	sts	0x0644, r24	; 0x800644 <__TEXT_REGION_LENGTH__+0x700644>
    1044:	81 ec       	ldi	r24, 0xC1	; 193
    1046:	80 93 e3 08 	sts	0x08E3, r24	; 0x8008e3 <__TEXT_REGION_LENGTH__+0x7008e3>
    104a:	80 91 e2 08 	lds	r24, 0x08E2	; 0x8008e2 <__TEXT_REGION_LENGTH__+0x7008e2>
    104e:	87 ff       	sbrs	r24, 7
    1050:	fc cf       	rjmp	.-8      	; 0x104a <begin+0x4e6>
    1052:	80 91 44 06 	lds	r24, 0x0644	; 0x800644 <__TEXT_REGION_LENGTH__+0x700644>
    1056:	80 61       	ori	r24, 0x10	; 16
    1058:	80 93 44 06 	sts	0x0644, r24	; 0x800644 <__TEXT_REGION_LENGTH__+0x700644>
    105c:	80 91 44 06 	lds	r24, 0x0644	; 0x800644 <__TEXT_REGION_LENGTH__+0x700644>
    1060:	88 60       	ori	r24, 0x08	; 8
    1062:	80 93 44 06 	sts	0x0644, r24	; 0x800644 <__TEXT_REGION_LENGTH__+0x700644>
    1066:	80 91 44 06 	lds	r24, 0x0644	; 0x800644 <__TEXT_REGION_LENGTH__+0x700644>
    106a:	8f 7e       	andi	r24, 0xEF	; 239
    106c:	80 93 44 06 	sts	0x0644, r24	; 0x800644 <__TEXT_REGION_LENGTH__+0x700644>
    1070:	80 e1       	ldi	r24, 0x10	; 16
    1072:	80 93 e3 08 	sts	0x08E3, r24	; 0x8008e3 <__TEXT_REGION_LENGTH__+0x7008e3>
    1076:	80 91 e2 08 	lds	r24, 0x08E2	; 0x8008e2 <__TEXT_REGION_LENGTH__+0x7008e2>
    107a:	87 ff       	sbrs	r24, 7
    107c:	fc cf       	rjmp	.-8      	; 0x1076 <begin+0x512>
    107e:	80 91 44 06 	lds	r24, 0x0644	; 0x800644 <__TEXT_REGION_LENGTH__+0x700644>
    1082:	80 61       	ori	r24, 0x10	; 16
    1084:	80 93 44 06 	sts	0x0644, r24	; 0x800644 <__TEXT_REGION_LENGTH__+0x700644>
    1088:	80 91 44 06 	lds	r24, 0x0644	; 0x800644 <__TEXT_REGION_LENGTH__+0x700644>
    108c:	87 7e       	andi	r24, 0xE7	; 231
    108e:	80 93 44 06 	sts	0x0644, r24	; 0x800644 <__TEXT_REGION_LENGTH__+0x700644>
    1092:	85 ec       	ldi	r24, 0xC5	; 197
    1094:	80 93 e3 08 	sts	0x08E3, r24	; 0x8008e3 <__TEXT_REGION_LENGTH__+0x7008e3>
    1098:	80 91 e2 08 	lds	r24, 0x08E2	; 0x8008e2 <__TEXT_REGION_LENGTH__+0x7008e2>
    109c:	87 ff       	sbrs	r24, 7
    109e:	fc cf       	rjmp	.-8      	; 0x1098 <begin+0x534>
    10a0:	80 91 44 06 	lds	r24, 0x0644	; 0x800644 <__TEXT_REGION_LENGTH__+0x700644>
    10a4:	80 61       	ori	r24, 0x10	; 16
    10a6:	80 93 44 06 	sts	0x0644, r24	; 0x800644 <__TEXT_REGION_LENGTH__+0x700644>
    10aa:	80 91 44 06 	lds	r24, 0x0644	; 0x800644 <__TEXT_REGION_LENGTH__+0x700644>
    10ae:	88 60       	ori	r24, 0x08	; 8
    10b0:	80 93 44 06 	sts	0x0644, r24	; 0x800644 <__TEXT_REGION_LENGTH__+0x700644>
    10b4:	80 91 44 06 	lds	r24, 0x0644	; 0x800644 <__TEXT_REGION_LENGTH__+0x700644>
    10b8:	8f 7e       	andi	r24, 0xEF	; 239
    10ba:	80 93 44 06 	sts	0x0644, r24	; 0x800644 <__TEXT_REGION_LENGTH__+0x700644>
    10be:	8e e3       	ldi	r24, 0x3E	; 62
    10c0:	80 93 e3 08 	sts	0x08E3, r24	; 0x8008e3 <__TEXT_REGION_LENGTH__+0x7008e3>
    10c4:	80 91 e2 08 	lds	r24, 0x08E2	; 0x8008e2 <__TEXT_REGION_LENGTH__+0x7008e2>
    10c8:	87 ff       	sbrs	r24, 7
    10ca:	fc cf       	rjmp	.-8      	; 0x10c4 <begin+0x560>
    10cc:	80 91 44 06 	lds	r24, 0x0644	; 0x800644 <__TEXT_REGION_LENGTH__+0x700644>
    10d0:	80 61       	ori	r24, 0x10	; 16
    10d2:	80 93 44 06 	sts	0x0644, r24	; 0x800644 <__TEXT_REGION_LENGTH__+0x700644>
    10d6:	80 91 44 06 	lds	r24, 0x0644	; 0x800644 <__TEXT_REGION_LENGTH__+0x700644>
    10da:	88 60       	ori	r24, 0x08	; 8
    10dc:	80 93 44 06 	sts	0x0644, r24	; 0x800644 <__TEXT_REGION_LENGTH__+0x700644>
    10e0:	80 91 44 06 	lds	r24, 0x0644	; 0x800644 <__TEXT_REGION_LENGTH__+0x700644>
    10e4:	8f 7e       	andi	r24, 0xEF	; 239
    10e6:	80 93 44 06 	sts	0x0644, r24	; 0x800644 <__TEXT_REGION_LENGTH__+0x700644>
    10ea:	88 e2       	ldi	r24, 0x28	; 40
    10ec:	80 93 e3 08 	sts	0x08E3, r24	; 0x8008e3 <__TEXT_REGION_LENGTH__+0x7008e3>
    10f0:	80 91 e2 08 	lds	r24, 0x08E2	; 0x8008e2 <__TEXT_REGION_LENGTH__+0x7008e2>
    10f4:	87 ff       	sbrs	r24, 7
    10f6:	fc cf       	rjmp	.-8      	; 0x10f0 <begin+0x58c>
    10f8:	80 91 44 06 	lds	r24, 0x0644	; 0x800644 <__TEXT_REGION_LENGTH__+0x700644>
    10fc:	80 61       	ori	r24, 0x10	; 16
    10fe:	80 93 44 06 	sts	0x0644, r24	; 0x800644 <__TEXT_REGION_LENGTH__+0x700644>
    1102:	80 91 44 06 	lds	r24, 0x0644	; 0x800644 <__TEXT_REGION_LENGTH__+0x700644>
    1106:	87 7e       	andi	r24, 0xE7	; 231
    1108:	80 93 44 06 	sts	0x0644, r24	; 0x800644 <__TEXT_REGION_LENGTH__+0x700644>
    110c:	87 ec       	ldi	r24, 0xC7	; 199
    110e:	80 93 e3 08 	sts	0x08E3, r24	; 0x8008e3 <__TEXT_REGION_LENGTH__+0x7008e3>
    1112:	80 91 e2 08 	lds	r24, 0x08E2	; 0x8008e2 <__TEXT_REGION_LENGTH__+0x7008e2>
    1116:	87 ff       	sbrs	r24, 7
    1118:	fc cf       	rjmp	.-8      	; 0x1112 <begin+0x5ae>
    111a:	80 91 44 06 	lds	r24, 0x0644	; 0x800644 <__TEXT_REGION_LENGTH__+0x700644>
    111e:	80 61       	ori	r24, 0x10	; 16
    1120:	80 93 44 06 	sts	0x0644, r24	; 0x800644 <__TEXT_REGION_LENGTH__+0x700644>
    1124:	80 91 44 06 	lds	r24, 0x0644	; 0x800644 <__TEXT_REGION_LENGTH__+0x700644>
    1128:	88 60       	ori	r24, 0x08	; 8
    112a:	80 93 44 06 	sts	0x0644, r24	; 0x800644 <__TEXT_REGION_LENGTH__+0x700644>
    112e:	80 91 44 06 	lds	r24, 0x0644	; 0x800644 <__TEXT_REGION_LENGTH__+0x700644>
    1132:	8f 7e       	andi	r24, 0xEF	; 239
    1134:	80 93 44 06 	sts	0x0644, r24	; 0x800644 <__TEXT_REGION_LENGTH__+0x700644>
    1138:	86 e8       	ldi	r24, 0x86	; 134
    113a:	80 93 e3 08 	sts	0x08E3, r24	; 0x8008e3 <__TEXT_REGION_LENGTH__+0x7008e3>
    113e:	80 91 e2 08 	lds	r24, 0x08E2	; 0x8008e2 <__TEXT_REGION_LENGTH__+0x7008e2>
    1142:	87 ff       	sbrs	r24, 7
    1144:	fc cf       	rjmp	.-8      	; 0x113e <begin+0x5da>
    1146:	80 91 44 06 	lds	r24, 0x0644	; 0x800644 <__TEXT_REGION_LENGTH__+0x700644>
    114a:	80 61       	ori	r24, 0x10	; 16
    114c:	80 93 44 06 	sts	0x0644, r24	; 0x800644 <__TEXT_REGION_LENGTH__+0x700644>
    1150:	80 91 44 06 	lds	r24, 0x0644	; 0x800644 <__TEXT_REGION_LENGTH__+0x700644>
    1154:	87 7e       	andi	r24, 0xE7	; 231
    1156:	80 93 44 06 	sts	0x0644, r24	; 0x800644 <__TEXT_REGION_LENGTH__+0x700644>
    115a:	86 e3       	ldi	r24, 0x36	; 54
    115c:	80 93 e3 08 	sts	0x08E3, r24	; 0x8008e3 <__TEXT_REGION_LENGTH__+0x7008e3>
    1160:	80 91 e2 08 	lds	r24, 0x08E2	; 0x8008e2 <__TEXT_REGION_LENGTH__+0x7008e2>
    1164:	87 ff       	sbrs	r24, 7
    1166:	fc cf       	rjmp	.-8      	; 0x1160 <begin+0x5fc>
    1168:	80 91 44 06 	lds	r24, 0x0644	; 0x800644 <__TEXT_REGION_LENGTH__+0x700644>
    116c:	80 61       	ori	r24, 0x10	; 16
    116e:	80 93 44 06 	sts	0x0644, r24	; 0x800644 <__TEXT_REGION_LENGTH__+0x700644>
    1172:	80 91 44 06 	lds	r24, 0x0644	; 0x800644 <__TEXT_REGION_LENGTH__+0x700644>
    1176:	88 60       	ori	r24, 0x08	; 8
    1178:	80 93 44 06 	sts	0x0644, r24	; 0x800644 <__TEXT_REGION_LENGTH__+0x700644>
    117c:	80 91 44 06 	lds	r24, 0x0644	; 0x800644 <__TEXT_REGION_LENGTH__+0x700644>
    1180:	8f 7e       	andi	r24, 0xEF	; 239
    1182:	80 93 44 06 	sts	0x0644, r24	; 0x800644 <__TEXT_REGION_LENGTH__+0x700644>
    1186:	88 e4       	ldi	r24, 0x48	; 72
    1188:	80 93 e3 08 	sts	0x08E3, r24	; 0x8008e3 <__TEXT_REGION_LENGTH__+0x7008e3>
    118c:	80 91 e2 08 	lds	r24, 0x08E2	; 0x8008e2 <__TEXT_REGION_LENGTH__+0x7008e2>
    1190:	87 ff       	sbrs	r24, 7
    1192:	fc cf       	rjmp	.-8      	; 0x118c <begin+0x628>
    1194:	80 91 44 06 	lds	r24, 0x0644	; 0x800644 <__TEXT_REGION_LENGTH__+0x700644>
    1198:	80 61       	ori	r24, 0x10	; 16
    119a:	80 93 44 06 	sts	0x0644, r24	; 0x800644 <__TEXT_REGION_LENGTH__+0x700644>
    119e:	80 91 44 06 	lds	r24, 0x0644	; 0x800644 <__TEXT_REGION_LENGTH__+0x700644>
    11a2:	87 7e       	andi	r24, 0xE7	; 231
    11a4:	80 93 44 06 	sts	0x0644, r24	; 0x800644 <__TEXT_REGION_LENGTH__+0x700644>
    11a8:	8a e3       	ldi	r24, 0x3A	; 58
    11aa:	80 93 e3 08 	sts	0x08E3, r24	; 0x8008e3 <__TEXT_REGION_LENGTH__+0x7008e3>
    11ae:	80 91 e2 08 	lds	r24, 0x08E2	; 0x8008e2 <__TEXT_REGION_LENGTH__+0x7008e2>
    11b2:	87 ff       	sbrs	r24, 7
    11b4:	fc cf       	rjmp	.-8      	; 0x11ae <begin+0x64a>
    11b6:	80 91 44 06 	lds	r24, 0x0644	; 0x800644 <__TEXT_REGION_LENGTH__+0x700644>
    11ba:	80 61       	ori	r24, 0x10	; 16
    11bc:	80 93 44 06 	sts	0x0644, r24	; 0x800644 <__TEXT_REGION_LENGTH__+0x700644>
    11c0:	80 91 44 06 	lds	r24, 0x0644	; 0x800644 <__TEXT_REGION_LENGTH__+0x700644>
    11c4:	88 60       	ori	r24, 0x08	; 8
    11c6:	80 93 44 06 	sts	0x0644, r24	; 0x800644 <__TEXT_REGION_LENGTH__+0x700644>
    11ca:	80 91 44 06 	lds	r24, 0x0644	; 0x800644 <__TEXT_REGION_LENGTH__+0x700644>
    11ce:	8f 7e       	andi	r24, 0xEF	; 239
    11d0:	80 93 44 06 	sts	0x0644, r24	; 0x800644 <__TEXT_REGION_LENGTH__+0x700644>
    11d4:	85 e5       	ldi	r24, 0x55	; 85
    11d6:	80 93 e3 08 	sts	0x08E3, r24	; 0x8008e3 <__TEXT_REGION_LENGTH__+0x7008e3>
    11da:	80 91 e2 08 	lds	r24, 0x08E2	; 0x8008e2 <__TEXT_REGION_LENGTH__+0x7008e2>
    11de:	87 ff       	sbrs	r24, 7
    11e0:	fc cf       	rjmp	.-8      	; 0x11da <begin+0x676>
    11e2:	80 91 44 06 	lds	r24, 0x0644	; 0x800644 <__TEXT_REGION_LENGTH__+0x700644>
    11e6:	80 61       	ori	r24, 0x10	; 16
    11e8:	80 93 44 06 	sts	0x0644, r24	; 0x800644 <__TEXT_REGION_LENGTH__+0x700644>
    11ec:	80 91 44 06 	lds	r24, 0x0644	; 0x800644 <__TEXT_REGION_LENGTH__+0x700644>
    11f0:	87 7e       	andi	r24, 0xE7	; 231
    11f2:	80 93 44 06 	sts	0x0644, r24	; 0x800644 <__TEXT_REGION_LENGTH__+0x700644>
    11f6:	81 eb       	ldi	r24, 0xB1	; 177
    11f8:	80 93 e3 08 	sts	0x08E3, r24	; 0x8008e3 <__TEXT_REGION_LENGTH__+0x7008e3>
    11fc:	80 91 e2 08 	lds	r24, 0x08E2	; 0x8008e2 <__TEXT_REGION_LENGTH__+0x7008e2>
    1200:	87 ff       	sbrs	r24, 7
    1202:	fc cf       	rjmp	.-8      	; 0x11fc <begin+0x698>
    1204:	80 91 44 06 	lds	r24, 0x0644	; 0x800644 <__TEXT_REGION_LENGTH__+0x700644>
    1208:	80 61       	ori	r24, 0x10	; 16
    120a:	80 93 44 06 	sts	0x0644, r24	; 0x800644 <__TEXT_REGION_LENGTH__+0x700644>
    120e:	80 91 44 06 	lds	r24, 0x0644	; 0x800644 <__TEXT_REGION_LENGTH__+0x700644>
    1212:	88 60       	ori	r24, 0x08	; 8
    1214:	80 93 44 06 	sts	0x0644, r24	; 0x800644 <__TEXT_REGION_LENGTH__+0x700644>
    1218:	80 91 44 06 	lds	r24, 0x0644	; 0x800644 <__TEXT_REGION_LENGTH__+0x700644>
    121c:	8f 7e       	andi	r24, 0xEF	; 239
    121e:	80 93 44 06 	sts	0x0644, r24	; 0x800644 <__TEXT_REGION_LENGTH__+0x700644>
    1222:	10 92 e3 08 	sts	0x08E3, r1	; 0x8008e3 <__TEXT_REGION_LENGTH__+0x7008e3>
    1226:	80 91 e2 08 	lds	r24, 0x08E2	; 0x8008e2 <__TEXT_REGION_LENGTH__+0x7008e2>
    122a:	87 ff       	sbrs	r24, 7
    122c:	fc cf       	rjmp	.-8      	; 0x1226 <begin+0x6c2>
    122e:	80 91 44 06 	lds	r24, 0x0644	; 0x800644 <__TEXT_REGION_LENGTH__+0x700644>
    1232:	80 61       	ori	r24, 0x10	; 16
    1234:	80 93 44 06 	sts	0x0644, r24	; 0x800644 <__TEXT_REGION_LENGTH__+0x700644>
    1238:	80 91 44 06 	lds	r24, 0x0644	; 0x800644 <__TEXT_REGION_LENGTH__+0x700644>
    123c:	88 60       	ori	r24, 0x08	; 8
    123e:	80 93 44 06 	sts	0x0644, r24	; 0x800644 <__TEXT_REGION_LENGTH__+0x700644>
    1242:	80 91 44 06 	lds	r24, 0x0644	; 0x800644 <__TEXT_REGION_LENGTH__+0x700644>
    1246:	8f 7e       	andi	r24, 0xEF	; 239
    1248:	80 93 44 06 	sts	0x0644, r24	; 0x800644 <__TEXT_REGION_LENGTH__+0x700644>
    124c:	88 e1       	ldi	r24, 0x18	; 24
    124e:	80 93 e3 08 	sts	0x08E3, r24	; 0x8008e3 <__TEXT_REGION_LENGTH__+0x7008e3>
    1252:	80 91 e2 08 	lds	r24, 0x08E2	; 0x8008e2 <__TEXT_REGION_LENGTH__+0x7008e2>
    1256:	87 ff       	sbrs	r24, 7
    1258:	fc cf       	rjmp	.-8      	; 0x1252 <begin+0x6ee>
    125a:	80 91 44 06 	lds	r24, 0x0644	; 0x800644 <__TEXT_REGION_LENGTH__+0x700644>
    125e:	80 61       	ori	r24, 0x10	; 16
    1260:	80 93 44 06 	sts	0x0644, r24	; 0x800644 <__TEXT_REGION_LENGTH__+0x700644>
    1264:	80 91 44 06 	lds	r24, 0x0644	; 0x800644 <__TEXT_REGION_LENGTH__+0x700644>
    1268:	87 7e       	andi	r24, 0xE7	; 231
    126a:	80 93 44 06 	sts	0x0644, r24	; 0x800644 <__TEXT_REGION_LENGTH__+0x700644>
    126e:	86 eb       	ldi	r24, 0xB6	; 182
    1270:	80 93 e3 08 	sts	0x08E3, r24	; 0x8008e3 <__TEXT_REGION_LENGTH__+0x7008e3>
    1274:	80 91 e2 08 	lds	r24, 0x08E2	; 0x8008e2 <__TEXT_REGION_LENGTH__+0x7008e2>
    1278:	87 ff       	sbrs	r24, 7
    127a:	fc cf       	rjmp	.-8      	; 0x1274 <begin+0x710>
    127c:	80 91 44 06 	lds	r24, 0x0644	; 0x800644 <__TEXT_REGION_LENGTH__+0x700644>
    1280:	80 61       	ori	r24, 0x10	; 16
    1282:	80 93 44 06 	sts	0x0644, r24	; 0x800644 <__TEXT_REGION_LENGTH__+0x700644>
    1286:	80 91 44 06 	lds	r24, 0x0644	; 0x800644 <__TEXT_REGION_LENGTH__+0x700644>
    128a:	88 60       	ori	r24, 0x08	; 8
    128c:	80 93 44 06 	sts	0x0644, r24	; 0x800644 <__TEXT_REGION_LENGTH__+0x700644>
    1290:	80 91 44 06 	lds	r24, 0x0644	; 0x800644 <__TEXT_REGION_LENGTH__+0x700644>
    1294:	8f 7e       	andi	r24, 0xEF	; 239
    1296:	80 93 44 06 	sts	0x0644, r24	; 0x800644 <__TEXT_REGION_LENGTH__+0x700644>
    129a:	88 e0       	ldi	r24, 0x08	; 8
    129c:	80 93 e3 08 	sts	0x08E3, r24	; 0x8008e3 <__TEXT_REGION_LENGTH__+0x7008e3>
    12a0:	80 91 e2 08 	lds	r24, 0x08E2	; 0x8008e2 <__TEXT_REGION_LENGTH__+0x7008e2>
    12a4:	87 ff       	sbrs	r24, 7
    12a6:	fc cf       	rjmp	.-8      	; 0x12a0 <begin+0x73c>
    12a8:	80 91 44 06 	lds	r24, 0x0644	; 0x800644 <__TEXT_REGION_LENGTH__+0x700644>
    12ac:	80 61       	ori	r24, 0x10	; 16
    12ae:	80 93 44 06 	sts	0x0644, r24	; 0x800644 <__TEXT_REGION_LENGTH__+0x700644>
    12b2:	80 91 44 06 	lds	r24, 0x0644	; 0x800644 <__TEXT_REGION_LENGTH__+0x700644>
    12b6:	88 60       	ori	r24, 0x08	; 8
    12b8:	80 93 44 06 	sts	0x0644, r24	; 0x800644 <__TEXT_REGION_LENGTH__+0x700644>
    12bc:	80 91 44 06 	lds	r24, 0x0644	; 0x800644 <__TEXT_REGION_LENGTH__+0x700644>
    12c0:	8f 7e       	andi	r24, 0xEF	; 239
    12c2:	80 93 44 06 	sts	0x0644, r24	; 0x800644 <__TEXT_REGION_LENGTH__+0x700644>
    12c6:	82 e8       	ldi	r24, 0x82	; 130
    12c8:	80 93 e3 08 	sts	0x08E3, r24	; 0x8008e3 <__TEXT_REGION_LENGTH__+0x7008e3>
    12cc:	80 91 e2 08 	lds	r24, 0x08E2	; 0x8008e2 <__TEXT_REGION_LENGTH__+0x7008e2>
    12d0:	87 ff       	sbrs	r24, 7
    12d2:	fc cf       	rjmp	.-8      	; 0x12cc <begin+0x768>
    12d4:	80 91 44 06 	lds	r24, 0x0644	; 0x800644 <__TEXT_REGION_LENGTH__+0x700644>
    12d8:	80 61       	ori	r24, 0x10	; 16
    12da:	80 93 44 06 	sts	0x0644, r24	; 0x800644 <__TEXT_REGION_LENGTH__+0x700644>
    12de:	80 91 44 06 	lds	r24, 0x0644	; 0x800644 <__TEXT_REGION_LENGTH__+0x700644>
    12e2:	88 60       	ori	r24, 0x08	; 8
    12e4:	80 93 44 06 	sts	0x0644, r24	; 0x800644 <__TEXT_REGION_LENGTH__+0x700644>
    12e8:	80 91 44 06 	lds	r24, 0x0644	; 0x800644 <__TEXT_REGION_LENGTH__+0x700644>
    12ec:	8f 7e       	andi	r24, 0xEF	; 239
    12ee:	80 93 44 06 	sts	0x0644, r24	; 0x800644 <__TEXT_REGION_LENGTH__+0x700644>
    12f2:	87 e2       	ldi	r24, 0x27	; 39
    12f4:	80 93 e3 08 	sts	0x08E3, r24	; 0x8008e3 <__TEXT_REGION_LENGTH__+0x7008e3>
    12f8:	80 91 e2 08 	lds	r24, 0x08E2	; 0x8008e2 <__TEXT_REGION_LENGTH__+0x7008e2>
    12fc:	87 ff       	sbrs	r24, 7
    12fe:	fc cf       	rjmp	.-8      	; 0x12f8 <begin+0x794>
    1300:	80 91 44 06 	lds	r24, 0x0644	; 0x800644 <__TEXT_REGION_LENGTH__+0x700644>
    1304:	80 61       	ori	r24, 0x10	; 16
    1306:	80 93 44 06 	sts	0x0644, r24	; 0x800644 <__TEXT_REGION_LENGTH__+0x700644>
    130a:	80 91 44 06 	lds	r24, 0x0644	; 0x800644 <__TEXT_REGION_LENGTH__+0x700644>
    130e:	87 7e       	andi	r24, 0xE7	; 231
    1310:	80 93 44 06 	sts	0x0644, r24	; 0x800644 <__TEXT_REGION_LENGTH__+0x700644>
    1314:	82 ef       	ldi	r24, 0xF2	; 242
    1316:	80 93 e3 08 	sts	0x08E3, r24	; 0x8008e3 <__TEXT_REGION_LENGTH__+0x7008e3>
    131a:	80 91 e2 08 	lds	r24, 0x08E2	; 0x8008e2 <__TEXT_REGION_LENGTH__+0x7008e2>
    131e:	87 ff       	sbrs	r24, 7
    1320:	fc cf       	rjmp	.-8      	; 0x131a <begin+0x7b6>
    1322:	80 91 44 06 	lds	r24, 0x0644	; 0x800644 <__TEXT_REGION_LENGTH__+0x700644>
    1326:	80 61       	ori	r24, 0x10	; 16
    1328:	80 93 44 06 	sts	0x0644, r24	; 0x800644 <__TEXT_REGION_LENGTH__+0x700644>
    132c:	80 91 44 06 	lds	r24, 0x0644	; 0x800644 <__TEXT_REGION_LENGTH__+0x700644>
    1330:	88 60       	ori	r24, 0x08	; 8
    1332:	80 93 44 06 	sts	0x0644, r24	; 0x800644 <__TEXT_REGION_LENGTH__+0x700644>
    1336:	80 91 44 06 	lds	r24, 0x0644	; 0x800644 <__TEXT_REGION_LENGTH__+0x700644>
    133a:	8f 7e       	andi	r24, 0xEF	; 239
    133c:	80 93 44 06 	sts	0x0644, r24	; 0x800644 <__TEXT_REGION_LENGTH__+0x700644>
    1340:	10 92 e3 08 	sts	0x08E3, r1	; 0x8008e3 <__TEXT_REGION_LENGTH__+0x7008e3>
    1344:	80 91 e2 08 	lds	r24, 0x08E2	; 0x8008e2 <__TEXT_REGION_LENGTH__+0x7008e2>
    1348:	87 ff       	sbrs	r24, 7
    134a:	fc cf       	rjmp	.-8      	; 0x1344 <begin+0x7e0>
    134c:	80 91 44 06 	lds	r24, 0x0644	; 0x800644 <__TEXT_REGION_LENGTH__+0x700644>
    1350:	80 61       	ori	r24, 0x10	; 16
    1352:	80 93 44 06 	sts	0x0644, r24	; 0x800644 <__TEXT_REGION_LENGTH__+0x700644>
    1356:	80 91 44 06 	lds	r24, 0x0644	; 0x800644 <__TEXT_REGION_LENGTH__+0x700644>
    135a:	87 7e       	andi	r24, 0xE7	; 231
    135c:	80 93 44 06 	sts	0x0644, r24	; 0x800644 <__TEXT_REGION_LENGTH__+0x700644>
    1360:	86 e2       	ldi	r24, 0x26	; 38
    1362:	80 93 e3 08 	sts	0x08E3, r24	; 0x8008e3 <__TEXT_REGION_LENGTH__+0x7008e3>
    1366:	80 91 e2 08 	lds	r24, 0x08E2	; 0x8008e2 <__TEXT_REGION_LENGTH__+0x7008e2>
    136a:	87 ff       	sbrs	r24, 7
    136c:	fc cf       	rjmp	.-8      	; 0x1366 <begin+0x802>
    136e:	80 91 44 06 	lds	r24, 0x0644	; 0x800644 <__TEXT_REGION_LENGTH__+0x700644>
    1372:	80 61       	ori	r24, 0x10	; 16
    1374:	80 93 44 06 	sts	0x0644, r24	; 0x800644 <__TEXT_REGION_LENGTH__+0x700644>
    1378:	80 91 44 06 	lds	r24, 0x0644	; 0x800644 <__TEXT_REGION_LENGTH__+0x700644>
    137c:	88 60       	ori	r24, 0x08	; 8
    137e:	80 93 44 06 	sts	0x0644, r24	; 0x800644 <__TEXT_REGION_LENGTH__+0x700644>
    1382:	80 91 44 06 	lds	r24, 0x0644	; 0x800644 <__TEXT_REGION_LENGTH__+0x700644>
    1386:	8f 7e       	andi	r24, 0xEF	; 239
    1388:	80 93 44 06 	sts	0x0644, r24	; 0x800644 <__TEXT_REGION_LENGTH__+0x700644>
    138c:	81 e0       	ldi	r24, 0x01	; 1
    138e:	80 93 e3 08 	sts	0x08E3, r24	; 0x8008e3 <__TEXT_REGION_LENGTH__+0x7008e3>
    1392:	80 91 e2 08 	lds	r24, 0x08E2	; 0x8008e2 <__TEXT_REGION_LENGTH__+0x7008e2>
    1396:	87 ff       	sbrs	r24, 7
    1398:	fc cf       	rjmp	.-8      	; 0x1392 <begin+0x82e>
    139a:	80 91 44 06 	lds	r24, 0x0644	; 0x800644 <__TEXT_REGION_LENGTH__+0x700644>
    139e:	80 61       	ori	r24, 0x10	; 16
    13a0:	80 93 44 06 	sts	0x0644, r24	; 0x800644 <__TEXT_REGION_LENGTH__+0x700644>
    13a4:	80 91 44 06 	lds	r24, 0x0644	; 0x800644 <__TEXT_REGION_LENGTH__+0x700644>
    13a8:	87 7e       	andi	r24, 0xE7	; 231
    13aa:	80 93 44 06 	sts	0x0644, r24	; 0x800644 <__TEXT_REGION_LENGTH__+0x700644>
    13ae:	80 ee       	ldi	r24, 0xE0	; 224
    13b0:	80 93 e3 08 	sts	0x08E3, r24	; 0x8008e3 <__TEXT_REGION_LENGTH__+0x7008e3>
    13b4:	80 91 e2 08 	lds	r24, 0x08E2	; 0x8008e2 <__TEXT_REGION_LENGTH__+0x7008e2>
    13b8:	87 ff       	sbrs	r24, 7
    13ba:	fc cf       	rjmp	.-8      	; 0x13b4 <begin+0x850>
    13bc:	80 91 44 06 	lds	r24, 0x0644	; 0x800644 <__TEXT_REGION_LENGTH__+0x700644>
    13c0:	80 61       	ori	r24, 0x10	; 16
    13c2:	80 93 44 06 	sts	0x0644, r24	; 0x800644 <__TEXT_REGION_LENGTH__+0x700644>
    13c6:	80 91 44 06 	lds	r24, 0x0644	; 0x800644 <__TEXT_REGION_LENGTH__+0x700644>
    13ca:	88 60       	ori	r24, 0x08	; 8
    13cc:	80 93 44 06 	sts	0x0644, r24	; 0x800644 <__TEXT_REGION_LENGTH__+0x700644>
    13d0:	80 91 44 06 	lds	r24, 0x0644	; 0x800644 <__TEXT_REGION_LENGTH__+0x700644>
    13d4:	8f 7e       	andi	r24, 0xEF	; 239
    13d6:	80 93 44 06 	sts	0x0644, r24	; 0x800644 <__TEXT_REGION_LENGTH__+0x700644>
    13da:	8f e0       	ldi	r24, 0x0F	; 15
    13dc:	80 93 e3 08 	sts	0x08E3, r24	; 0x8008e3 <__TEXT_REGION_LENGTH__+0x7008e3>
    13e0:	80 91 e2 08 	lds	r24, 0x08E2	; 0x8008e2 <__TEXT_REGION_LENGTH__+0x7008e2>
    13e4:	87 ff       	sbrs	r24, 7
    13e6:	fc cf       	rjmp	.-8      	; 0x13e0 <begin+0x87c>
    13e8:	80 91 44 06 	lds	r24, 0x0644	; 0x800644 <__TEXT_REGION_LENGTH__+0x700644>
    13ec:	80 61       	ori	r24, 0x10	; 16
    13ee:	80 93 44 06 	sts	0x0644, r24	; 0x800644 <__TEXT_REGION_LENGTH__+0x700644>
    13f2:	80 91 44 06 	lds	r24, 0x0644	; 0x800644 <__TEXT_REGION_LENGTH__+0x700644>
    13f6:	88 60       	ori	r24, 0x08	; 8
    13f8:	80 93 44 06 	sts	0x0644, r24	; 0x800644 <__TEXT_REGION_LENGTH__+0x700644>
    13fc:	80 91 44 06 	lds	r24, 0x0644	; 0x800644 <__TEXT_REGION_LENGTH__+0x700644>
    1400:	8f 7e       	andi	r24, 0xEF	; 239
    1402:	80 93 44 06 	sts	0x0644, r24	; 0x800644 <__TEXT_REGION_LENGTH__+0x700644>
    1406:	81 e3       	ldi	r24, 0x31	; 49
    1408:	80 93 e3 08 	sts	0x08E3, r24	; 0x8008e3 <__TEXT_REGION_LENGTH__+0x7008e3>
    140c:	80 91 e2 08 	lds	r24, 0x08E2	; 0x8008e2 <__TEXT_REGION_LENGTH__+0x7008e2>
    1410:	87 ff       	sbrs	r24, 7
    1412:	fc cf       	rjmp	.-8      	; 0x140c <begin+0x8a8>
    1414:	80 91 44 06 	lds	r24, 0x0644	; 0x800644 <__TEXT_REGION_LENGTH__+0x700644>
    1418:	80 61       	ori	r24, 0x10	; 16
    141a:	80 93 44 06 	sts	0x0644, r24	; 0x800644 <__TEXT_REGION_LENGTH__+0x700644>
    141e:	80 91 44 06 	lds	r24, 0x0644	; 0x800644 <__TEXT_REGION_LENGTH__+0x700644>
    1422:	88 60       	ori	r24, 0x08	; 8
    1424:	80 93 44 06 	sts	0x0644, r24	; 0x800644 <__TEXT_REGION_LENGTH__+0x700644>
    1428:	80 91 44 06 	lds	r24, 0x0644	; 0x800644 <__TEXT_REGION_LENGTH__+0x700644>
    142c:	8f 7e       	andi	r24, 0xEF	; 239
    142e:	80 93 44 06 	sts	0x0644, r24	; 0x800644 <__TEXT_REGION_LENGTH__+0x700644>
    1432:	8b e2       	ldi	r24, 0x2B	; 43
    1434:	80 93 e3 08 	sts	0x08E3, r24	; 0x8008e3 <__TEXT_REGION_LENGTH__+0x7008e3>
    1438:	80 91 e2 08 	lds	r24, 0x08E2	; 0x8008e2 <__TEXT_REGION_LENGTH__+0x7008e2>
    143c:	87 ff       	sbrs	r24, 7
    143e:	fc cf       	rjmp	.-8      	; 0x1438 <begin+0x8d4>
    1440:	80 91 44 06 	lds	r24, 0x0644	; 0x800644 <__TEXT_REGION_LENGTH__+0x700644>
    1444:	80 61       	ori	r24, 0x10	; 16
    1446:	80 93 44 06 	sts	0x0644, r24	; 0x800644 <__TEXT_REGION_LENGTH__+0x700644>
    144a:	80 91 44 06 	lds	r24, 0x0644	; 0x800644 <__TEXT_REGION_LENGTH__+0x700644>
    144e:	88 60       	ori	r24, 0x08	; 8
    1450:	80 93 44 06 	sts	0x0644, r24	; 0x800644 <__TEXT_REGION_LENGTH__+0x700644>
    1454:	80 91 44 06 	lds	r24, 0x0644	; 0x800644 <__TEXT_REGION_LENGTH__+0x700644>
    1458:	8f 7e       	andi	r24, 0xEF	; 239
    145a:	80 93 44 06 	sts	0x0644, r24	; 0x800644 <__TEXT_REGION_LENGTH__+0x700644>
    145e:	8c e0       	ldi	r24, 0x0C	; 12
    1460:	80 93 e3 08 	sts	0x08E3, r24	; 0x8008e3 <__TEXT_REGION_LENGTH__+0x7008e3>
    1464:	80 91 e2 08 	lds	r24, 0x08E2	; 0x8008e2 <__TEXT_REGION_LENGTH__+0x7008e2>
    1468:	87 ff       	sbrs	r24, 7
    146a:	fc cf       	rjmp	.-8      	; 0x1464 <begin+0x900>
    146c:	80 91 44 06 	lds	r24, 0x0644	; 0x800644 <__TEXT_REGION_LENGTH__+0x700644>
    1470:	80 61       	ori	r24, 0x10	; 16
    1472:	80 93 44 06 	sts	0x0644, r24	; 0x800644 <__TEXT_REGION_LENGTH__+0x700644>
    1476:	80 91 44 06 	lds	r24, 0x0644	; 0x800644 <__TEXT_REGION_LENGTH__+0x700644>
    147a:	88 60       	ori	r24, 0x08	; 8
    147c:	80 93 44 06 	sts	0x0644, r24	; 0x800644 <__TEXT_REGION_LENGTH__+0x700644>
    1480:	80 91 44 06 	lds	r24, 0x0644	; 0x800644 <__TEXT_REGION_LENGTH__+0x700644>
    1484:	8f 7e       	andi	r24, 0xEF	; 239
    1486:	80 93 44 06 	sts	0x0644, r24	; 0x800644 <__TEXT_REGION_LENGTH__+0x700644>
    148a:	8e e0       	ldi	r24, 0x0E	; 14
    148c:	80 93 e3 08 	sts	0x08E3, r24	; 0x8008e3 <__TEXT_REGION_LENGTH__+0x7008e3>
    1490:	80 91 e2 08 	lds	r24, 0x08E2	; 0x8008e2 <__TEXT_REGION_LENGTH__+0x7008e2>
    1494:	87 ff       	sbrs	r24, 7
    1496:	fc cf       	rjmp	.-8      	; 0x1490 <begin+0x92c>
    1498:	80 91 44 06 	lds	r24, 0x0644	; 0x800644 <__TEXT_REGION_LENGTH__+0x700644>
    149c:	80 61       	ori	r24, 0x10	; 16
    149e:	80 93 44 06 	sts	0x0644, r24	; 0x800644 <__TEXT_REGION_LENGTH__+0x700644>
    14a2:	80 91 44 06 	lds	r24, 0x0644	; 0x800644 <__TEXT_REGION_LENGTH__+0x700644>
    14a6:	88 60       	ori	r24, 0x08	; 8
    14a8:	80 93 44 06 	sts	0x0644, r24	; 0x800644 <__TEXT_REGION_LENGTH__+0x700644>
    14ac:	80 91 44 06 	lds	r24, 0x0644	; 0x800644 <__TEXT_REGION_LENGTH__+0x700644>
    14b0:	8f 7e       	andi	r24, 0xEF	; 239
    14b2:	80 93 44 06 	sts	0x0644, r24	; 0x800644 <__TEXT_REGION_LENGTH__+0x700644>
    14b6:	88 e0       	ldi	r24, 0x08	; 8
    14b8:	80 93 e3 08 	sts	0x08E3, r24	; 0x8008e3 <__TEXT_REGION_LENGTH__+0x7008e3>
    14bc:	80 91 e2 08 	lds	r24, 0x08E2	; 0x8008e2 <__TEXT_REGION_LENGTH__+0x7008e2>
    14c0:	87 ff       	sbrs	r24, 7
    14c2:	fc cf       	rjmp	.-8      	; 0x14bc <begin+0x958>
    14c4:	80 91 44 06 	lds	r24, 0x0644	; 0x800644 <__TEXT_REGION_LENGTH__+0x700644>
    14c8:	80 61       	ori	r24, 0x10	; 16
    14ca:	80 93 44 06 	sts	0x0644, r24	; 0x800644 <__TEXT_REGION_LENGTH__+0x700644>
    14ce:	80 91 44 06 	lds	r24, 0x0644	; 0x800644 <__TEXT_REGION_LENGTH__+0x700644>
    14d2:	88 60       	ori	r24, 0x08	; 8
    14d4:	80 93 44 06 	sts	0x0644, r24	; 0x800644 <__TEXT_REGION_LENGTH__+0x700644>
    14d8:	80 91 44 06 	lds	r24, 0x0644	; 0x800644 <__TEXT_REGION_LENGTH__+0x700644>
    14dc:	8f 7e       	andi	r24, 0xEF	; 239
    14de:	80 93 44 06 	sts	0x0644, r24	; 0x800644 <__TEXT_REGION_LENGTH__+0x700644>
    14e2:	8e e4       	ldi	r24, 0x4E	; 78
    14e4:	80 93 e3 08 	sts	0x08E3, r24	; 0x8008e3 <__TEXT_REGION_LENGTH__+0x7008e3>
    14e8:	80 91 e2 08 	lds	r24, 0x08E2	; 0x8008e2 <__TEXT_REGION_LENGTH__+0x7008e2>
    14ec:	87 ff       	sbrs	r24, 7
    14ee:	fc cf       	rjmp	.-8      	; 0x14e8 <begin+0x984>
    14f0:	80 91 44 06 	lds	r24, 0x0644	; 0x800644 <__TEXT_REGION_LENGTH__+0x700644>
    14f4:	80 61       	ori	r24, 0x10	; 16
    14f6:	80 93 44 06 	sts	0x0644, r24	; 0x800644 <__TEXT_REGION_LENGTH__+0x700644>
    14fa:	80 91 44 06 	lds	r24, 0x0644	; 0x800644 <__TEXT_REGION_LENGTH__+0x700644>
    14fe:	88 60       	ori	r24, 0x08	; 8
    1500:	80 93 44 06 	sts	0x0644, r24	; 0x800644 <__TEXT_REGION_LENGTH__+0x700644>
    1504:	80 91 44 06 	lds	r24, 0x0644	; 0x800644 <__TEXT_REGION_LENGTH__+0x700644>
    1508:	8f 7e       	andi	r24, 0xEF	; 239
    150a:	80 93 44 06 	sts	0x0644, r24	; 0x800644 <__TEXT_REGION_LENGTH__+0x700644>
    150e:	81 ef       	ldi	r24, 0xF1	; 241
    1510:	80 93 e3 08 	sts	0x08E3, r24	; 0x8008e3 <__TEXT_REGION_LENGTH__+0x7008e3>
    1514:	80 91 e2 08 	lds	r24, 0x08E2	; 0x8008e2 <__TEXT_REGION_LENGTH__+0x7008e2>
    1518:	87 ff       	sbrs	r24, 7
    151a:	fc cf       	rjmp	.-8      	; 0x1514 <begin+0x9b0>
    151c:	80 91 44 06 	lds	r24, 0x0644	; 0x800644 <__TEXT_REGION_LENGTH__+0x700644>
    1520:	80 61       	ori	r24, 0x10	; 16
    1522:	80 93 44 06 	sts	0x0644, r24	; 0x800644 <__TEXT_REGION_LENGTH__+0x700644>
    1526:	80 91 44 06 	lds	r24, 0x0644	; 0x800644 <__TEXT_REGION_LENGTH__+0x700644>
    152a:	88 60       	ori	r24, 0x08	; 8
    152c:	80 93 44 06 	sts	0x0644, r24	; 0x800644 <__TEXT_REGION_LENGTH__+0x700644>
    1530:	80 91 44 06 	lds	r24, 0x0644	; 0x800644 <__TEXT_REGION_LENGTH__+0x700644>
    1534:	8f 7e       	andi	r24, 0xEF	; 239
    1536:	80 93 44 06 	sts	0x0644, r24	; 0x800644 <__TEXT_REGION_LENGTH__+0x700644>
    153a:	87 e3       	ldi	r24, 0x37	; 55
    153c:	80 93 e3 08 	sts	0x08E3, r24	; 0x8008e3 <__TEXT_REGION_LENGTH__+0x7008e3>
    1540:	80 91 e2 08 	lds	r24, 0x08E2	; 0x8008e2 <__TEXT_REGION_LENGTH__+0x7008e2>
    1544:	87 ff       	sbrs	r24, 7
    1546:	fc cf       	rjmp	.-8      	; 0x1540 <begin+0x9dc>
    1548:	80 91 44 06 	lds	r24, 0x0644	; 0x800644 <__TEXT_REGION_LENGTH__+0x700644>
    154c:	80 61       	ori	r24, 0x10	; 16
    154e:	80 93 44 06 	sts	0x0644, r24	; 0x800644 <__TEXT_REGION_LENGTH__+0x700644>
    1552:	80 91 44 06 	lds	r24, 0x0644	; 0x800644 <__TEXT_REGION_LENGTH__+0x700644>
    1556:	88 60       	ori	r24, 0x08	; 8
    1558:	80 93 44 06 	sts	0x0644, r24	; 0x800644 <__TEXT_REGION_LENGTH__+0x700644>
    155c:	80 91 44 06 	lds	r24, 0x0644	; 0x800644 <__TEXT_REGION_LENGTH__+0x700644>
    1560:	8f 7e       	andi	r24, 0xEF	; 239
    1562:	80 93 44 06 	sts	0x0644, r24	; 0x800644 <__TEXT_REGION_LENGTH__+0x700644>
    1566:	87 e0       	ldi	r24, 0x07	; 7
    1568:	80 93 e3 08 	sts	0x08E3, r24	; 0x8008e3 <__TEXT_REGION_LENGTH__+0x7008e3>
    156c:	80 91 e2 08 	lds	r24, 0x08E2	; 0x8008e2 <__TEXT_REGION_LENGTH__+0x7008e2>
    1570:	87 ff       	sbrs	r24, 7
    1572:	fc cf       	rjmp	.-8      	; 0x156c <begin+0xa08>
    1574:	80 91 44 06 	lds	r24, 0x0644	; 0x800644 <__TEXT_REGION_LENGTH__+0x700644>
    1578:	80 61       	ori	r24, 0x10	; 16
    157a:	80 93 44 06 	sts	0x0644, r24	; 0x800644 <__TEXT_REGION_LENGTH__+0x700644>
    157e:	80 91 44 06 	lds	r24, 0x0644	; 0x800644 <__TEXT_REGION_LENGTH__+0x700644>
    1582:	88 60       	ori	r24, 0x08	; 8
    1584:	80 93 44 06 	sts	0x0644, r24	; 0x800644 <__TEXT_REGION_LENGTH__+0x700644>
    1588:	80 91 44 06 	lds	r24, 0x0644	; 0x800644 <__TEXT_REGION_LENGTH__+0x700644>
    158c:	8f 7e       	andi	r24, 0xEF	; 239
    158e:	80 93 44 06 	sts	0x0644, r24	; 0x800644 <__TEXT_REGION_LENGTH__+0x700644>
    1592:	80 e1       	ldi	r24, 0x10	; 16
    1594:	80 93 e3 08 	sts	0x08E3, r24	; 0x8008e3 <__TEXT_REGION_LENGTH__+0x7008e3>
    1598:	80 91 e2 08 	lds	r24, 0x08E2	; 0x8008e2 <__TEXT_REGION_LENGTH__+0x7008e2>
    159c:	87 ff       	sbrs	r24, 7
    159e:	fc cf       	rjmp	.-8      	; 0x1598 <begin+0xa34>
    15a0:	80 91 44 06 	lds	r24, 0x0644	; 0x800644 <__TEXT_REGION_LENGTH__+0x700644>
    15a4:	80 61       	ori	r24, 0x10	; 16
    15a6:	80 93 44 06 	sts	0x0644, r24	; 0x800644 <__TEXT_REGION_LENGTH__+0x700644>
    15aa:	80 91 44 06 	lds	r24, 0x0644	; 0x800644 <__TEXT_REGION_LENGTH__+0x700644>
    15ae:	88 60       	ori	r24, 0x08	; 8
    15b0:	80 93 44 06 	sts	0x0644, r24	; 0x800644 <__TEXT_REGION_LENGTH__+0x700644>
    15b4:	80 91 44 06 	lds	r24, 0x0644	; 0x800644 <__TEXT_REGION_LENGTH__+0x700644>
    15b8:	8f 7e       	andi	r24, 0xEF	; 239
    15ba:	80 93 44 06 	sts	0x0644, r24	; 0x800644 <__TEXT_REGION_LENGTH__+0x700644>
    15be:	83 e0       	ldi	r24, 0x03	; 3
    15c0:	80 93 e3 08 	sts	0x08E3, r24	; 0x8008e3 <__TEXT_REGION_LENGTH__+0x7008e3>
    15c4:	80 91 e2 08 	lds	r24, 0x08E2	; 0x8008e2 <__TEXT_REGION_LENGTH__+0x7008e2>
    15c8:	87 ff       	sbrs	r24, 7
    15ca:	fc cf       	rjmp	.-8      	; 0x15c4 <begin+0xa60>
    15cc:	80 91 44 06 	lds	r24, 0x0644	; 0x800644 <__TEXT_REGION_LENGTH__+0x700644>
    15d0:	80 61       	ori	r24, 0x10	; 16
    15d2:	80 93 44 06 	sts	0x0644, r24	; 0x800644 <__TEXT_REGION_LENGTH__+0x700644>
    15d6:	80 91 44 06 	lds	r24, 0x0644	; 0x800644 <__TEXT_REGION_LENGTH__+0x700644>
    15da:	88 60       	ori	r24, 0x08	; 8
    15dc:	80 93 44 06 	sts	0x0644, r24	; 0x800644 <__TEXT_REGION_LENGTH__+0x700644>
    15e0:	80 91 44 06 	lds	r24, 0x0644	; 0x800644 <__TEXT_REGION_LENGTH__+0x700644>
    15e4:	8f 7e       	andi	r24, 0xEF	; 239
    15e6:	80 93 44 06 	sts	0x0644, r24	; 0x800644 <__TEXT_REGION_LENGTH__+0x700644>
    15ea:	8e e0       	ldi	r24, 0x0E	; 14
    15ec:	80 93 e3 08 	sts	0x08E3, r24	; 0x8008e3 <__TEXT_REGION_LENGTH__+0x7008e3>
    15f0:	80 91 e2 08 	lds	r24, 0x08E2	; 0x8008e2 <__TEXT_REGION_LENGTH__+0x7008e2>
    15f4:	87 ff       	sbrs	r24, 7
    15f6:	fc cf       	rjmp	.-8      	; 0x15f0 <begin+0xa8c>
    15f8:	80 91 44 06 	lds	r24, 0x0644	; 0x800644 <__TEXT_REGION_LENGTH__+0x700644>
    15fc:	80 61       	ori	r24, 0x10	; 16
    15fe:	80 93 44 06 	sts	0x0644, r24	; 0x800644 <__TEXT_REGION_LENGTH__+0x700644>
    1602:	80 91 44 06 	lds	r24, 0x0644	; 0x800644 <__TEXT_REGION_LENGTH__+0x700644>
    1606:	88 60       	ori	r24, 0x08	; 8
    1608:	80 93 44 06 	sts	0x0644, r24	; 0x800644 <__TEXT_REGION_LENGTH__+0x700644>
    160c:	80 91 44 06 	lds	r24, 0x0644	; 0x800644 <__TEXT_REGION_LENGTH__+0x700644>
    1610:	8f 7e       	andi	r24, 0xEF	; 239
    1612:	80 93 44 06 	sts	0x0644, r24	; 0x800644 <__TEXT_REGION_LENGTH__+0x700644>
    1616:	89 e0       	ldi	r24, 0x09	; 9
    1618:	80 93 e3 08 	sts	0x08E3, r24	; 0x8008e3 <__TEXT_REGION_LENGTH__+0x7008e3>
    161c:	80 91 e2 08 	lds	r24, 0x08E2	; 0x8008e2 <__TEXT_REGION_LENGTH__+0x7008e2>
    1620:	87 ff       	sbrs	r24, 7
    1622:	fc cf       	rjmp	.-8      	; 0x161c <begin+0xab8>
    1624:	80 91 44 06 	lds	r24, 0x0644	; 0x800644 <__TEXT_REGION_LENGTH__+0x700644>
    1628:	80 61       	ori	r24, 0x10	; 16
    162a:	80 93 44 06 	sts	0x0644, r24	; 0x800644 <__TEXT_REGION_LENGTH__+0x700644>
    162e:	80 91 44 06 	lds	r24, 0x0644	; 0x800644 <__TEXT_REGION_LENGTH__+0x700644>
    1632:	88 60       	ori	r24, 0x08	; 8
    1634:	80 93 44 06 	sts	0x0644, r24	; 0x800644 <__TEXT_REGION_LENGTH__+0x700644>
    1638:	80 91 44 06 	lds	r24, 0x0644	; 0x800644 <__TEXT_REGION_LENGTH__+0x700644>
    163c:	8f 7e       	andi	r24, 0xEF	; 239
    163e:	80 93 44 06 	sts	0x0644, r24	; 0x800644 <__TEXT_REGION_LENGTH__+0x700644>
    1642:	10 92 e3 08 	sts	0x08E3, r1	; 0x8008e3 <__TEXT_REGION_LENGTH__+0x7008e3>
    1646:	80 91 e2 08 	lds	r24, 0x08E2	; 0x8008e2 <__TEXT_REGION_LENGTH__+0x7008e2>
    164a:	87 ff       	sbrs	r24, 7
    164c:	fc cf       	rjmp	.-8      	; 0x1646 <begin+0xae2>
    164e:	80 91 44 06 	lds	r24, 0x0644	; 0x800644 <__TEXT_REGION_LENGTH__+0x700644>
    1652:	80 61       	ori	r24, 0x10	; 16
    1654:	80 93 44 06 	sts	0x0644, r24	; 0x800644 <__TEXT_REGION_LENGTH__+0x700644>
    1658:	80 91 44 06 	lds	r24, 0x0644	; 0x800644 <__TEXT_REGION_LENGTH__+0x700644>
    165c:	87 7e       	andi	r24, 0xE7	; 231
    165e:	80 93 44 06 	sts	0x0644, r24	; 0x800644 <__TEXT_REGION_LENGTH__+0x700644>
    1662:	81 ee       	ldi	r24, 0xE1	; 225
    1664:	80 93 e3 08 	sts	0x08E3, r24	; 0x8008e3 <__TEXT_REGION_LENGTH__+0x7008e3>
    1668:	80 91 e2 08 	lds	r24, 0x08E2	; 0x8008e2 <__TEXT_REGION_LENGTH__+0x7008e2>
    166c:	87 ff       	sbrs	r24, 7
    166e:	fc cf       	rjmp	.-8      	; 0x1668 <begin+0xb04>
    1670:	80 91 44 06 	lds	r24, 0x0644	; 0x800644 <__TEXT_REGION_LENGTH__+0x700644>
    1674:	80 61       	ori	r24, 0x10	; 16
    1676:	80 93 44 06 	sts	0x0644, r24	; 0x800644 <__TEXT_REGION_LENGTH__+0x700644>
    167a:	80 91 44 06 	lds	r24, 0x0644	; 0x800644 <__TEXT_REGION_LENGTH__+0x700644>
    167e:	88 60       	ori	r24, 0x08	; 8
    1680:	80 93 44 06 	sts	0x0644, r24	; 0x800644 <__TEXT_REGION_LENGTH__+0x700644>
    1684:	80 91 44 06 	lds	r24, 0x0644	; 0x800644 <__TEXT_REGION_LENGTH__+0x700644>
    1688:	8f 7e       	andi	r24, 0xEF	; 239
    168a:	80 93 44 06 	sts	0x0644, r24	; 0x800644 <__TEXT_REGION_LENGTH__+0x700644>
    168e:	10 92 e3 08 	sts	0x08E3, r1	; 0x8008e3 <__TEXT_REGION_LENGTH__+0x7008e3>
    1692:	80 91 e2 08 	lds	r24, 0x08E2	; 0x8008e2 <__TEXT_REGION_LENGTH__+0x7008e2>
    1696:	87 ff       	sbrs	r24, 7
    1698:	fc cf       	rjmp	.-8      	; 0x1692 <begin+0xb2e>
    169a:	80 91 44 06 	lds	r24, 0x0644	; 0x800644 <__TEXT_REGION_LENGTH__+0x700644>
    169e:	80 61       	ori	r24, 0x10	; 16
    16a0:	80 93 44 06 	sts	0x0644, r24	; 0x800644 <__TEXT_REGION_LENGTH__+0x700644>
    16a4:	80 91 44 06 	lds	r24, 0x0644	; 0x800644 <__TEXT_REGION_LENGTH__+0x700644>
    16a8:	88 60       	ori	r24, 0x08	; 8
    16aa:	80 93 44 06 	sts	0x0644, r24	; 0x800644 <__TEXT_REGION_LENGTH__+0x700644>
    16ae:	80 91 44 06 	lds	r24, 0x0644	; 0x800644 <__TEXT_REGION_LENGTH__+0x700644>
    16b2:	8f 7e       	andi	r24, 0xEF	; 239
    16b4:	80 93 44 06 	sts	0x0644, r24	; 0x800644 <__TEXT_REGION_LENGTH__+0x700644>
    16b8:	8e e0       	ldi	r24, 0x0E	; 14
    16ba:	80 93 e3 08 	sts	0x08E3, r24	; 0x8008e3 <__TEXT_REGION_LENGTH__+0x7008e3>
    16be:	80 91 e2 08 	lds	r24, 0x08E2	; 0x8008e2 <__TEXT_REGION_LENGTH__+0x7008e2>
    16c2:	87 ff       	sbrs	r24, 7
    16c4:	fc cf       	rjmp	.-8      	; 0x16be <begin+0xb5a>
    16c6:	80 91 44 06 	lds	r24, 0x0644	; 0x800644 <__TEXT_REGION_LENGTH__+0x700644>
    16ca:	80 61       	ori	r24, 0x10	; 16
    16cc:	80 93 44 06 	sts	0x0644, r24	; 0x800644 <__TEXT_REGION_LENGTH__+0x700644>
    16d0:	80 91 44 06 	lds	r24, 0x0644	; 0x800644 <__TEXT_REGION_LENGTH__+0x700644>
    16d4:	88 60       	ori	r24, 0x08	; 8
    16d6:	80 93 44 06 	sts	0x0644, r24	; 0x800644 <__TEXT_REGION_LENGTH__+0x700644>
    16da:	80 91 44 06 	lds	r24, 0x0644	; 0x800644 <__TEXT_REGION_LENGTH__+0x700644>
    16de:	8f 7e       	andi	r24, 0xEF	; 239
    16e0:	80 93 44 06 	sts	0x0644, r24	; 0x800644 <__TEXT_REGION_LENGTH__+0x700644>
    16e4:	84 e1       	ldi	r24, 0x14	; 20
    16e6:	80 93 e3 08 	sts	0x08E3, r24	; 0x8008e3 <__TEXT_REGION_LENGTH__+0x7008e3>
    16ea:	80 91 e2 08 	lds	r24, 0x08E2	; 0x8008e2 <__TEXT_REGION_LENGTH__+0x7008e2>
    16ee:	87 ff       	sbrs	r24, 7
    16f0:	fc cf       	rjmp	.-8      	; 0x16ea <begin+0xb86>
    16f2:	80 91 44 06 	lds	r24, 0x0644	; 0x800644 <__TEXT_REGION_LENGTH__+0x700644>
    16f6:	80 61       	ori	r24, 0x10	; 16
    16f8:	80 93 44 06 	sts	0x0644, r24	; 0x800644 <__TEXT_REGION_LENGTH__+0x700644>
    16fc:	80 91 44 06 	lds	r24, 0x0644	; 0x800644 <__TEXT_REGION_LENGTH__+0x700644>
    1700:	88 60       	ori	r24, 0x08	; 8
    1702:	80 93 44 06 	sts	0x0644, r24	; 0x800644 <__TEXT_REGION_LENGTH__+0x700644>
    1706:	80 91 44 06 	lds	r24, 0x0644	; 0x800644 <__TEXT_REGION_LENGTH__+0x700644>
    170a:	8f 7e       	andi	r24, 0xEF	; 239
    170c:	80 93 44 06 	sts	0x0644, r24	; 0x800644 <__TEXT_REGION_LENGTH__+0x700644>
    1710:	83 e0       	ldi	r24, 0x03	; 3
    1712:	80 93 e3 08 	sts	0x08E3, r24	; 0x8008e3 <__TEXT_REGION_LENGTH__+0x7008e3>
    1716:	80 91 e2 08 	lds	r24, 0x08E2	; 0x8008e2 <__TEXT_REGION_LENGTH__+0x7008e2>
    171a:	87 ff       	sbrs	r24, 7
    171c:	fc cf       	rjmp	.-8      	; 0x1716 <begin+0xbb2>
    171e:	80 91 44 06 	lds	r24, 0x0644	; 0x800644 <__TEXT_REGION_LENGTH__+0x700644>
    1722:	80 61       	ori	r24, 0x10	; 16
    1724:	80 93 44 06 	sts	0x0644, r24	; 0x800644 <__TEXT_REGION_LENGTH__+0x700644>
    1728:	80 91 44 06 	lds	r24, 0x0644	; 0x800644 <__TEXT_REGION_LENGTH__+0x700644>
    172c:	88 60       	ori	r24, 0x08	; 8
    172e:	80 93 44 06 	sts	0x0644, r24	; 0x800644 <__TEXT_REGION_LENGTH__+0x700644>
    1732:	80 91 44 06 	lds	r24, 0x0644	; 0x800644 <__TEXT_REGION_LENGTH__+0x700644>
    1736:	8f 7e       	andi	r24, 0xEF	; 239
    1738:	80 93 44 06 	sts	0x0644, r24	; 0x800644 <__TEXT_REGION_LENGTH__+0x700644>
    173c:	81 e1       	ldi	r24, 0x11	; 17
    173e:	80 93 e3 08 	sts	0x08E3, r24	; 0x8008e3 <__TEXT_REGION_LENGTH__+0x7008e3>
    1742:	80 91 e2 08 	lds	r24, 0x08E2	; 0x8008e2 <__TEXT_REGION_LENGTH__+0x7008e2>
    1746:	87 ff       	sbrs	r24, 7
    1748:	fc cf       	rjmp	.-8      	; 0x1742 <begin+0xbde>
    174a:	80 91 44 06 	lds	r24, 0x0644	; 0x800644 <__TEXT_REGION_LENGTH__+0x700644>
    174e:	80 61       	ori	r24, 0x10	; 16
    1750:	80 93 44 06 	sts	0x0644, r24	; 0x800644 <__TEXT_REGION_LENGTH__+0x700644>
    1754:	80 91 44 06 	lds	r24, 0x0644	; 0x800644 <__TEXT_REGION_LENGTH__+0x700644>
    1758:	88 60       	ori	r24, 0x08	; 8
    175a:	80 93 44 06 	sts	0x0644, r24	; 0x800644 <__TEXT_REGION_LENGTH__+0x700644>
    175e:	80 91 44 06 	lds	r24, 0x0644	; 0x800644 <__TEXT_REGION_LENGTH__+0x700644>
    1762:	8f 7e       	andi	r24, 0xEF	; 239
    1764:	80 93 44 06 	sts	0x0644, r24	; 0x800644 <__TEXT_REGION_LENGTH__+0x700644>
    1768:	87 e0       	ldi	r24, 0x07	; 7
    176a:	80 93 e3 08 	sts	0x08E3, r24	; 0x8008e3 <__TEXT_REGION_LENGTH__+0x7008e3>
    176e:	80 91 e2 08 	lds	r24, 0x08E2	; 0x8008e2 <__TEXT_REGION_LENGTH__+0x7008e2>
    1772:	87 ff       	sbrs	r24, 7
    1774:	fc cf       	rjmp	.-8      	; 0x176e <begin+0xc0a>
    1776:	80 91 44 06 	lds	r24, 0x0644	; 0x800644 <__TEXT_REGION_LENGTH__+0x700644>
    177a:	80 61       	ori	r24, 0x10	; 16
    177c:	80 93 44 06 	sts	0x0644, r24	; 0x800644 <__TEXT_REGION_LENGTH__+0x700644>
    1780:	80 91 44 06 	lds	r24, 0x0644	; 0x800644 <__TEXT_REGION_LENGTH__+0x700644>
    1784:	88 60       	ori	r24, 0x08	; 8
    1786:	80 93 44 06 	sts	0x0644, r24	; 0x800644 <__TEXT_REGION_LENGTH__+0x700644>
    178a:	80 91 44 06 	lds	r24, 0x0644	; 0x800644 <__TEXT_REGION_LENGTH__+0x700644>
    178e:	8f 7e       	andi	r24, 0xEF	; 239
    1790:	80 93 44 06 	sts	0x0644, r24	; 0x800644 <__TEXT_REGION_LENGTH__+0x700644>
    1794:	81 e3       	ldi	r24, 0x31	; 49
    1796:	80 93 e3 08 	sts	0x08E3, r24	; 0x8008e3 <__TEXT_REGION_LENGTH__+0x7008e3>
    179a:	80 91 e2 08 	lds	r24, 0x08E2	; 0x8008e2 <__TEXT_REGION_LENGTH__+0x7008e2>
    179e:	87 ff       	sbrs	r24, 7
    17a0:	fc cf       	rjmp	.-8      	; 0x179a <begin+0xc36>
    17a2:	80 91 44 06 	lds	r24, 0x0644	; 0x800644 <__TEXT_REGION_LENGTH__+0x700644>
    17a6:	80 61       	ori	r24, 0x10	; 16
    17a8:	80 93 44 06 	sts	0x0644, r24	; 0x800644 <__TEXT_REGION_LENGTH__+0x700644>
    17ac:	80 91 44 06 	lds	r24, 0x0644	; 0x800644 <__TEXT_REGION_LENGTH__+0x700644>
    17b0:	88 60       	ori	r24, 0x08	; 8
    17b2:	80 93 44 06 	sts	0x0644, r24	; 0x800644 <__TEXT_REGION_LENGTH__+0x700644>
    17b6:	80 91 44 06 	lds	r24, 0x0644	; 0x800644 <__TEXT_REGION_LENGTH__+0x700644>
    17ba:	8f 7e       	andi	r24, 0xEF	; 239
    17bc:	80 93 44 06 	sts	0x0644, r24	; 0x800644 <__TEXT_REGION_LENGTH__+0x700644>
    17c0:	81 ec       	ldi	r24, 0xC1	; 193
    17c2:	80 93 e3 08 	sts	0x08E3, r24	; 0x8008e3 <__TEXT_REGION_LENGTH__+0x7008e3>
    17c6:	80 91 e2 08 	lds	r24, 0x08E2	; 0x8008e2 <__TEXT_REGION_LENGTH__+0x7008e2>
    17ca:	87 ff       	sbrs	r24, 7
    17cc:	fc cf       	rjmp	.-8      	; 0x17c6 <begin+0xc62>
    17ce:	80 91 44 06 	lds	r24, 0x0644	; 0x800644 <__TEXT_REGION_LENGTH__+0x700644>
    17d2:	80 61       	ori	r24, 0x10	; 16
    17d4:	80 93 44 06 	sts	0x0644, r24	; 0x800644 <__TEXT_REGION_LENGTH__+0x700644>
    17d8:	80 91 44 06 	lds	r24, 0x0644	; 0x800644 <__TEXT_REGION_LENGTH__+0x700644>
    17dc:	88 60       	ori	r24, 0x08	; 8
    17de:	80 93 44 06 	sts	0x0644, r24	; 0x800644 <__TEXT_REGION_LENGTH__+0x700644>
    17e2:	80 91 44 06 	lds	r24, 0x0644	; 0x800644 <__TEXT_REGION_LENGTH__+0x700644>
    17e6:	8f 7e       	andi	r24, 0xEF	; 239
    17e8:	80 93 44 06 	sts	0x0644, r24	; 0x800644 <__TEXT_REGION_LENGTH__+0x700644>
    17ec:	88 e4       	ldi	r24, 0x48	; 72
    17ee:	80 93 e3 08 	sts	0x08E3, r24	; 0x8008e3 <__TEXT_REGION_LENGTH__+0x7008e3>
    17f2:	80 91 e2 08 	lds	r24, 0x08E2	; 0x8008e2 <__TEXT_REGION_LENGTH__+0x7008e2>
    17f6:	87 ff       	sbrs	r24, 7
    17f8:	fc cf       	rjmp	.-8      	; 0x17f2 <begin+0xc8e>
    17fa:	80 91 44 06 	lds	r24, 0x0644	; 0x800644 <__TEXT_REGION_LENGTH__+0x700644>
    17fe:	80 61       	ori	r24, 0x10	; 16
    1800:	80 93 44 06 	sts	0x0644, r24	; 0x800644 <__TEXT_REGION_LENGTH__+0x700644>
    1804:	80 91 44 06 	lds	r24, 0x0644	; 0x800644 <__TEXT_REGION_LENGTH__+0x700644>
    1808:	88 60       	ori	r24, 0x08	; 8
    180a:	80 93 44 06 	sts	0x0644, r24	; 0x800644 <__TEXT_REGION_LENGTH__+0x700644>
    180e:	80 91 44 06 	lds	r24, 0x0644	; 0x800644 <__TEXT_REGION_LENGTH__+0x700644>
    1812:	8f 7e       	andi	r24, 0xEF	; 239
    1814:	80 93 44 06 	sts	0x0644, r24	; 0x800644 <__TEXT_REGION_LENGTH__+0x700644>
    1818:	88 e0       	ldi	r24, 0x08	; 8
    181a:	80 93 e3 08 	sts	0x08E3, r24	; 0x8008e3 <__TEXT_REGION_LENGTH__+0x7008e3>
    181e:	80 91 e2 08 	lds	r24, 0x08E2	; 0x8008e2 <__TEXT_REGION_LENGTH__+0x7008e2>
    1822:	87 ff       	sbrs	r24, 7
    1824:	fc cf       	rjmp	.-8      	; 0x181e <begin+0xcba>
    1826:	80 91 44 06 	lds	r24, 0x0644	; 0x800644 <__TEXT_REGION_LENGTH__+0x700644>
    182a:	80 61       	ori	r24, 0x10	; 16
    182c:	80 93 44 06 	sts	0x0644, r24	; 0x800644 <__TEXT_REGION_LENGTH__+0x700644>
    1830:	80 91 44 06 	lds	r24, 0x0644	; 0x800644 <__TEXT_REGION_LENGTH__+0x700644>
    1834:	88 60       	ori	r24, 0x08	; 8
    1836:	80 93 44 06 	sts	0x0644, r24	; 0x800644 <__TEXT_REGION_LENGTH__+0x700644>
    183a:	80 91 44 06 	lds	r24, 0x0644	; 0x800644 <__TEXT_REGION_LENGTH__+0x700644>
    183e:	8f 7e       	andi	r24, 0xEF	; 239
    1840:	80 93 44 06 	sts	0x0644, r24	; 0x800644 <__TEXT_REGION_LENGTH__+0x700644>
    1844:	8f e0       	ldi	r24, 0x0F	; 15
    1846:	80 93 e3 08 	sts	0x08E3, r24	; 0x8008e3 <__TEXT_REGION_LENGTH__+0x7008e3>
    184a:	80 91 e2 08 	lds	r24, 0x08E2	; 0x8008e2 <__TEXT_REGION_LENGTH__+0x7008e2>
    184e:	87 ff       	sbrs	r24, 7
    1850:	fc cf       	rjmp	.-8      	; 0x184a <begin+0xce6>
    1852:	80 91 44 06 	lds	r24, 0x0644	; 0x800644 <__TEXT_REGION_LENGTH__+0x700644>
    1856:	80 61       	ori	r24, 0x10	; 16
    1858:	80 93 44 06 	sts	0x0644, r24	; 0x800644 <__TEXT_REGION_LENGTH__+0x700644>
    185c:	80 91 44 06 	lds	r24, 0x0644	; 0x800644 <__TEXT_REGION_LENGTH__+0x700644>
    1860:	88 60       	ori	r24, 0x08	; 8
    1862:	80 93 44 06 	sts	0x0644, r24	; 0x800644 <__TEXT_REGION_LENGTH__+0x700644>
    1866:	80 91 44 06 	lds	r24, 0x0644	; 0x800644 <__TEXT_REGION_LENGTH__+0x700644>
    186a:	8f 7e       	andi	r24, 0xEF	; 239
    186c:	80 93 44 06 	sts	0x0644, r24	; 0x800644 <__TEXT_REGION_LENGTH__+0x700644>
    1870:	8c e0       	ldi	r24, 0x0C	; 12
    1872:	80 93 e3 08 	sts	0x08E3, r24	; 0x8008e3 <__TEXT_REGION_LENGTH__+0x7008e3>
    1876:	80 91 e2 08 	lds	r24, 0x08E2	; 0x8008e2 <__TEXT_REGION_LENGTH__+0x7008e2>
    187a:	87 ff       	sbrs	r24, 7
    187c:	fc cf       	rjmp	.-8      	; 0x1876 <begin+0xd12>
    187e:	80 91 44 06 	lds	r24, 0x0644	; 0x800644 <__TEXT_REGION_LENGTH__+0x700644>
    1882:	80 61       	ori	r24, 0x10	; 16
    1884:	80 93 44 06 	sts	0x0644, r24	; 0x800644 <__TEXT_REGION_LENGTH__+0x700644>
    1888:	80 91 44 06 	lds	r24, 0x0644	; 0x800644 <__TEXT_REGION_LENGTH__+0x700644>
    188c:	88 60       	ori	r24, 0x08	; 8
    188e:	80 93 44 06 	sts	0x0644, r24	; 0x800644 <__TEXT_REGION_LENGTH__+0x700644>
    1892:	80 91 44 06 	lds	r24, 0x0644	; 0x800644 <__TEXT_REGION_LENGTH__+0x700644>
    1896:	8f 7e       	andi	r24, 0xEF	; 239
    1898:	80 93 44 06 	sts	0x0644, r24	; 0x800644 <__TEXT_REGION_LENGTH__+0x700644>
    189c:	81 e3       	ldi	r24, 0x31	; 49
    189e:	80 93 e3 08 	sts	0x08E3, r24	; 0x8008e3 <__TEXT_REGION_LENGTH__+0x7008e3>
    18a2:	80 91 e2 08 	lds	r24, 0x08E2	; 0x8008e2 <__TEXT_REGION_LENGTH__+0x7008e2>
    18a6:	87 ff       	sbrs	r24, 7
    18a8:	fc cf       	rjmp	.-8      	; 0x18a2 <begin+0xd3e>
    18aa:	80 91 44 06 	lds	r24, 0x0644	; 0x800644 <__TEXT_REGION_LENGTH__+0x700644>
    18ae:	80 61       	ori	r24, 0x10	; 16
    18b0:	80 93 44 06 	sts	0x0644, r24	; 0x800644 <__TEXT_REGION_LENGTH__+0x700644>
    18b4:	80 91 44 06 	lds	r24, 0x0644	; 0x800644 <__TEXT_REGION_LENGTH__+0x700644>
    18b8:	88 60       	ori	r24, 0x08	; 8
    18ba:	80 93 44 06 	sts	0x0644, r24	; 0x800644 <__TEXT_REGION_LENGTH__+0x700644>
    18be:	80 91 44 06 	lds	r24, 0x0644	; 0x800644 <__TEXT_REGION_LENGTH__+0x700644>
    18c2:	8f 7e       	andi	r24, 0xEF	; 239
    18c4:	80 93 44 06 	sts	0x0644, r24	; 0x800644 <__TEXT_REGION_LENGTH__+0x700644>
    18c8:	86 e3       	ldi	r24, 0x36	; 54
    18ca:	80 93 e3 08 	sts	0x08E3, r24	; 0x8008e3 <__TEXT_REGION_LENGTH__+0x7008e3>
    18ce:	80 91 e2 08 	lds	r24, 0x08E2	; 0x8008e2 <__TEXT_REGION_LENGTH__+0x7008e2>
    18d2:	87 ff       	sbrs	r24, 7
    18d4:	fc cf       	rjmp	.-8      	; 0x18ce <begin+0xd6a>
    18d6:	80 91 44 06 	lds	r24, 0x0644	; 0x800644 <__TEXT_REGION_LENGTH__+0x700644>
    18da:	80 61       	ori	r24, 0x10	; 16
    18dc:	80 93 44 06 	sts	0x0644, r24	; 0x800644 <__TEXT_REGION_LENGTH__+0x700644>
    18e0:	80 91 44 06 	lds	r24, 0x0644	; 0x800644 <__TEXT_REGION_LENGTH__+0x700644>
    18e4:	88 60       	ori	r24, 0x08	; 8
    18e6:	80 93 44 06 	sts	0x0644, r24	; 0x800644 <__TEXT_REGION_LENGTH__+0x700644>
    18ea:	80 91 44 06 	lds	r24, 0x0644	; 0x800644 <__TEXT_REGION_LENGTH__+0x700644>
    18ee:	8f 7e       	andi	r24, 0xEF	; 239
    18f0:	80 93 44 06 	sts	0x0644, r24	; 0x800644 <__TEXT_REGION_LENGTH__+0x700644>
    18f4:	8f e0       	ldi	r24, 0x0F	; 15
    18f6:	80 93 e3 08 	sts	0x08E3, r24	; 0x8008e3 <__TEXT_REGION_LENGTH__+0x7008e3>
    18fa:	80 91 e2 08 	lds	r24, 0x08E2	; 0x8008e2 <__TEXT_REGION_LENGTH__+0x7008e2>
    18fe:	87 ff       	sbrs	r24, 7
    1900:	fc cf       	rjmp	.-8      	; 0x18fa <begin+0xd96>
    1902:	80 91 44 06 	lds	r24, 0x0644	; 0x800644 <__TEXT_REGION_LENGTH__+0x700644>
    1906:	80 61       	ori	r24, 0x10	; 16
    1908:	80 93 44 06 	sts	0x0644, r24	; 0x800644 <__TEXT_REGION_LENGTH__+0x700644>
    190c:	80 91 44 06 	lds	r24, 0x0644	; 0x800644 <__TEXT_REGION_LENGTH__+0x700644>
    1910:	87 7e       	andi	r24, 0xE7	; 231
    1912:	80 93 44 06 	sts	0x0644, r24	; 0x800644 <__TEXT_REGION_LENGTH__+0x700644>
    1916:	81 e1       	ldi	r24, 0x11	; 17
    1918:	80 93 e3 08 	sts	0x08E3, r24	; 0x8008e3 <__TEXT_REGION_LENGTH__+0x7008e3>
    191c:	80 91 e2 08 	lds	r24, 0x08E2	; 0x8008e2 <__TEXT_REGION_LENGTH__+0x7008e2>
    1920:	87 ff       	sbrs	r24, 7
    1922:	fc cf       	rjmp	.-8      	; 0x191c <begin+0xdb8>
    1924:	80 91 44 06 	lds	r24, 0x0644	; 0x800644 <__TEXT_REGION_LENGTH__+0x700644>
    1928:	80 61       	ori	r24, 0x10	; 16
    192a:	80 93 44 06 	sts	0x0644, r24	; 0x800644 <__TEXT_REGION_LENGTH__+0x700644>
    192e:	8f e2       	ldi	r24, 0x2F	; 47
    1930:	95 e7       	ldi	r25, 0x75	; 117
    1932:	01 97       	sbiw	r24, 0x01	; 1
    1934:	f1 f7       	brne	.-4      	; 0x1932 <begin+0xdce>
    1936:	00 c0       	rjmp	.+0      	; 0x1938 <begin+0xdd4>
    1938:	00 00       	nop
    193a:	80 91 44 06 	lds	r24, 0x0644	; 0x800644 <__TEXT_REGION_LENGTH__+0x700644>
    193e:	87 7e       	andi	r24, 0xE7	; 231
    1940:	80 93 44 06 	sts	0x0644, r24	; 0x800644 <__TEXT_REGION_LENGTH__+0x700644>
    1944:	89 e2       	ldi	r24, 0x29	; 41
    1946:	80 93 e3 08 	sts	0x08E3, r24	; 0x8008e3 <__TEXT_REGION_LENGTH__+0x7008e3>
    194a:	80 91 e2 08 	lds	r24, 0x08E2	; 0x8008e2 <__TEXT_REGION_LENGTH__+0x7008e2>
    194e:	87 ff       	sbrs	r24, 7
    1950:	fc cf       	rjmp	.-8      	; 0x194a <begin+0xde6>
    1952:	80 91 44 06 	lds	r24, 0x0644	; 0x800644 <__TEXT_REGION_LENGTH__+0x700644>
    1956:	80 61       	ori	r24, 0x10	; 16
    1958:	80 93 44 06 	sts	0x0644, r24	; 0x800644 <__TEXT_REGION_LENGTH__+0x700644>
    195c:	08 95       	ret

0000195e <pushColor>:
    195e:	20 91 44 06 	lds	r18, 0x0644	; 0x800644 <__TEXT_REGION_LENGTH__+0x700644>
    1962:	28 60       	ori	r18, 0x08	; 8
    1964:	20 93 44 06 	sts	0x0644, r18	; 0x800644 <__TEXT_REGION_LENGTH__+0x700644>
    1968:	20 91 44 06 	lds	r18, 0x0644	; 0x800644 <__TEXT_REGION_LENGTH__+0x700644>
    196c:	2f 7e       	andi	r18, 0xEF	; 239
    196e:	20 93 44 06 	sts	0x0644, r18	; 0x800644 <__TEXT_REGION_LENGTH__+0x700644>
    1972:	90 93 e3 08 	sts	0x08E3, r25	; 0x8008e3 <__TEXT_REGION_LENGTH__+0x7008e3>
    1976:	90 91 e2 08 	lds	r25, 0x08E2	; 0x8008e2 <__TEXT_REGION_LENGTH__+0x7008e2>
    197a:	97 ff       	sbrs	r25, 7
    197c:	fc cf       	rjmp	.-8      	; 0x1976 <pushColor+0x18>
    197e:	90 91 44 06 	lds	r25, 0x0644	; 0x800644 <__TEXT_REGION_LENGTH__+0x700644>
    1982:	90 61       	ori	r25, 0x10	; 16
    1984:	90 93 44 06 	sts	0x0644, r25	; 0x800644 <__TEXT_REGION_LENGTH__+0x700644>
    1988:	90 91 44 06 	lds	r25, 0x0644	; 0x800644 <__TEXT_REGION_LENGTH__+0x700644>
    198c:	98 60       	ori	r25, 0x08	; 8
    198e:	90 93 44 06 	sts	0x0644, r25	; 0x800644 <__TEXT_REGION_LENGTH__+0x700644>
    1992:	90 91 44 06 	lds	r25, 0x0644	; 0x800644 <__TEXT_REGION_LENGTH__+0x700644>
    1996:	9f 7e       	andi	r25, 0xEF	; 239
    1998:	90 93 44 06 	sts	0x0644, r25	; 0x800644 <__TEXT_REGION_LENGTH__+0x700644>
    199c:	80 93 e3 08 	sts	0x08E3, r24	; 0x8008e3 <__TEXT_REGION_LENGTH__+0x7008e3>
    19a0:	80 91 e2 08 	lds	r24, 0x08E2	; 0x8008e2 <__TEXT_REGION_LENGTH__+0x7008e2>
    19a4:	87 ff       	sbrs	r24, 7
    19a6:	fc cf       	rjmp	.-8      	; 0x19a0 <pushColor+0x42>
    19a8:	80 91 44 06 	lds	r24, 0x0644	; 0x800644 <__TEXT_REGION_LENGTH__+0x700644>
    19ac:	80 61       	ori	r24, 0x10	; 16
    19ae:	80 93 44 06 	sts	0x0644, r24	; 0x800644 <__TEXT_REGION_LENGTH__+0x700644>
    19b2:	08 95       	ret

000019b4 <clear>:
    19b4:	ef 92       	push	r14
    19b6:	ff 92       	push	r15
    19b8:	0f 93       	push	r16
    19ba:	1f 93       	push	r17
    19bc:	cf 93       	push	r28
    19be:	df 93       	push	r29
    19c0:	8c 01       	movw	r16, r24
    19c2:	20 91 49 20 	lds	r18, 0x2049	; 0x802049 <height>
    19c6:	30 91 4a 20 	lds	r19, 0x204A	; 0x80204a <height+0x1>
    19ca:	21 50       	subi	r18, 0x01	; 1
    19cc:	31 09       	sbc	r19, r1
    19ce:	40 91 4b 20 	lds	r20, 0x204B	; 0x80204b <width>
    19d2:	50 91 4c 20 	lds	r21, 0x204C	; 0x80204c <width+0x1>
    19d6:	41 50       	subi	r20, 0x01	; 1
    19d8:	51 09       	sbc	r21, r1
    19da:	60 e0       	ldi	r22, 0x00	; 0
    19dc:	70 e0       	ldi	r23, 0x00	; 0
    19de:	80 e0       	ldi	r24, 0x00	; 0
    19e0:	90 e0       	ldi	r25, 0x00	; 0
    19e2:	0e 94 d6 04 	call	0x9ac	; 0x9ac <setAddress>
    19e6:	80 91 4b 20 	lds	r24, 0x204B	; 0x80204b <width>
    19ea:	90 91 4c 20 	lds	r25, 0x204C	; 0x80204c <width+0x1>
    19ee:	00 97       	sbiw	r24, 0x00	; 0
    19f0:	01 f1       	breq	.+64     	; 0x1a32 <clear+0x7e>
    19f2:	e1 2c       	mov	r14, r1
    19f4:	f1 2c       	mov	r15, r1
    19f6:	20 91 49 20 	lds	r18, 0x2049	; 0x802049 <height>
    19fa:	30 91 4a 20 	lds	r19, 0x204A	; 0x80204a <height+0x1>
    19fe:	21 15       	cp	r18, r1
    1a00:	31 05       	cpc	r19, r1
    1a02:	89 f0       	breq	.+34     	; 0x1a26 <clear+0x72>
    1a04:	c0 e0       	ldi	r28, 0x00	; 0
    1a06:	d0 e0       	ldi	r29, 0x00	; 0
    1a08:	c8 01       	movw	r24, r16
    1a0a:	0e 94 af 0c 	call	0x195e	; 0x195e <pushColor>
    1a0e:	21 96       	adiw	r28, 0x01	; 1
    1a10:	20 91 49 20 	lds	r18, 0x2049	; 0x802049 <height>
    1a14:	30 91 4a 20 	lds	r19, 0x204A	; 0x80204a <height+0x1>
    1a18:	c2 17       	cp	r28, r18
    1a1a:	d3 07       	cpc	r29, r19
    1a1c:	a8 f3       	brcs	.-22     	; 0x1a08 <clear+0x54>
    1a1e:	80 91 4b 20 	lds	r24, 0x204B	; 0x80204b <width>
    1a22:	90 91 4c 20 	lds	r25, 0x204C	; 0x80204c <width+0x1>
    1a26:	4f ef       	ldi	r20, 0xFF	; 255
    1a28:	e4 1a       	sub	r14, r20
    1a2a:	f4 0a       	sbc	r15, r20
    1a2c:	e8 16       	cp	r14, r24
    1a2e:	f9 06       	cpc	r15, r25
    1a30:	30 f3       	brcs	.-52     	; 0x19fe <clear+0x4a>
    1a32:	df 91       	pop	r29
    1a34:	cf 91       	pop	r28
    1a36:	1f 91       	pop	r17
    1a38:	0f 91       	pop	r16
    1a3a:	ff 90       	pop	r15
    1a3c:	ef 90       	pop	r14
    1a3e:	08 95       	ret

00001a40 <drawPixel>:
    1a40:	cf 93       	push	r28
    1a42:	df 93       	push	r29
    1a44:	20 91 4b 20 	lds	r18, 0x204B	; 0x80204b <width>
    1a48:	30 91 4c 20 	lds	r19, 0x204C	; 0x80204c <width+0x1>
    1a4c:	82 17       	cp	r24, r18
    1a4e:	93 07       	cpc	r25, r19
    1a50:	38 f4       	brcc	.+14     	; 0x1a60 <drawPixel+0x20>
    1a52:	20 91 49 20 	lds	r18, 0x2049	; 0x802049 <height>
    1a56:	30 91 4a 20 	lds	r19, 0x204A	; 0x80204a <height+0x1>
    1a5a:	62 17       	cp	r22, r18
    1a5c:	73 07       	cpc	r23, r19
    1a5e:	18 f0       	brcs	.+6      	; 0x1a66 <drawPixel+0x26>
    1a60:	df 91       	pop	r29
    1a62:	cf 91       	pop	r28
    1a64:	08 95       	ret
    1a66:	ea 01       	movw	r28, r20
    1a68:	9b 01       	movw	r18, r22
    1a6a:	2f 5f       	subi	r18, 0xFF	; 255
    1a6c:	3f 4f       	sbci	r19, 0xFF	; 255
    1a6e:	ac 01       	movw	r20, r24
    1a70:	4f 5f       	subi	r20, 0xFF	; 255
    1a72:	5f 4f       	sbci	r21, 0xFF	; 255
    1a74:	0e 94 d6 04 	call	0x9ac	; 0x9ac <setAddress>
    1a78:	ce 01       	movw	r24, r28
    1a7a:	df 91       	pop	r29
    1a7c:	cf 91       	pop	r28
    1a7e:	0c 94 af 0c 	jmp	0x195e	; 0x195e <pushColor>

00001a82 <fillrect>:
    1a82:	cf 92       	push	r12
    1a84:	df 92       	push	r13
    1a86:	ef 92       	push	r14
    1a88:	ff 92       	push	r15
    1a8a:	0f 93       	push	r16
    1a8c:	1f 93       	push	r17
    1a8e:	cf 93       	push	r28
    1a90:	df 93       	push	r29
    1a92:	6a 01       	movw	r12, r20
    1a94:	79 01       	movw	r14, r18
    1a96:	20 91 4b 20 	lds	r18, 0x204B	; 0x80204b <width>
    1a9a:	30 91 4c 20 	lds	r19, 0x204C	; 0x80204c <width+0x1>
    1a9e:	82 17       	cp	r24, r18
    1aa0:	93 07       	cpc	r25, r19
    1aa2:	a8 f5       	brcc	.+106    	; 0x1b0e <fillrect+0x8c>
    1aa4:	40 91 49 20 	lds	r20, 0x2049	; 0x802049 <height>
    1aa8:	50 91 4a 20 	lds	r21, 0x204A	; 0x80204a <height+0x1>
    1aac:	64 17       	cp	r22, r20
    1aae:	75 07       	cpc	r23, r21
    1ab0:	70 f5       	brcc	.+92     	; 0x1b0e <fillrect+0x8c>
    1ab2:	f6 01       	movw	r30, r12
    1ab4:	31 97       	sbiw	r30, 0x01	; 1
    1ab6:	e8 0f       	add	r30, r24
    1ab8:	f9 1f       	adc	r31, r25
    1aba:	e2 17       	cp	r30, r18
    1abc:	f3 07       	cpc	r31, r19
    1abe:	18 f0       	brcs	.+6      	; 0x1ac6 <fillrect+0x44>
    1ac0:	69 01       	movw	r12, r18
    1ac2:	c8 1a       	sub	r12, r24
    1ac4:	d9 0a       	sbc	r13, r25
    1ac6:	97 01       	movw	r18, r14
    1ac8:	21 50       	subi	r18, 0x01	; 1
    1aca:	31 09       	sbc	r19, r1
    1acc:	26 0f       	add	r18, r22
    1ace:	37 1f       	adc	r19, r23
    1ad0:	24 17       	cp	r18, r20
    1ad2:	35 07       	cpc	r19, r21
    1ad4:	28 f5       	brcc	.+74     	; 0x1b20 <fillrect+0x9e>
    1ad6:	9b 01       	movw	r18, r22
    1ad8:	21 50       	subi	r18, 0x01	; 1
    1ada:	31 09       	sbc	r19, r1
    1adc:	2e 0d       	add	r18, r14
    1ade:	3f 1d       	adc	r19, r15
    1ae0:	ac 01       	movw	r20, r24
    1ae2:	41 50       	subi	r20, 0x01	; 1
    1ae4:	51 09       	sbc	r21, r1
    1ae6:	4c 0d       	add	r20, r12
    1ae8:	5d 1d       	adc	r21, r13
    1aea:	0e 94 d6 04 	call	0x9ac	; 0x9ac <setAddress>
    1aee:	e1 14       	cp	r14, r1
    1af0:	f1 04       	cpc	r15, r1
    1af2:	69 f0       	breq	.+26     	; 0x1b0e <fillrect+0x8c>
    1af4:	c1 14       	cp	r12, r1
    1af6:	d1 04       	cpc	r13, r1
    1af8:	31 f0       	breq	.+12     	; 0x1b06 <fillrect+0x84>
    1afa:	e6 01       	movw	r28, r12
    1afc:	c8 01       	movw	r24, r16
    1afe:	0e 94 af 0c 	call	0x195e	; 0x195e <pushColor>
    1b02:	21 97       	sbiw	r28, 0x01	; 1
    1b04:	d9 f7       	brne	.-10     	; 0x1afc <fillrect+0x7a>
    1b06:	81 e0       	ldi	r24, 0x01	; 1
    1b08:	e8 1a       	sub	r14, r24
    1b0a:	f1 08       	sbc	r15, r1
    1b0c:	99 f7       	brne	.-26     	; 0x1af4 <fillrect+0x72>
    1b0e:	df 91       	pop	r29
    1b10:	cf 91       	pop	r28
    1b12:	1f 91       	pop	r17
    1b14:	0f 91       	pop	r16
    1b16:	ff 90       	pop	r15
    1b18:	ef 90       	pop	r14
    1b1a:	df 90       	pop	r13
    1b1c:	cf 90       	pop	r12
    1b1e:	08 95       	ret
    1b20:	7a 01       	movw	r14, r20
    1b22:	e6 1a       	sub	r14, r22
    1b24:	f7 0a       	sbc	r15, r23
    1b26:	d7 cf       	rjmp	.-82     	; 0x1ad6 <fillrect+0x54>

00001b28 <setRotation>:
	SPIC_DATA = data;	//write to data register
	//_delay_ms(5);
	while(!(SPIC_STATUS & (1<<SPI_IF_bp))){}	//wait until the flag is set making data
}
void spi_writeCommand(uint8_t command){
	SPIPORT &= ~((1<<DC)|(1<<CS));		//dc and cs both set as low to send
    1b28:	90 91 44 06 	lds	r25, 0x0644	; 0x800644 <__TEXT_REGION_LENGTH__+0x700644>
    1b2c:	97 7e       	andi	r25, 0xE7	; 231
    1b2e:	90 93 44 06 	sts	0x0644, r25	; 0x800644 <__TEXT_REGION_LENGTH__+0x700644>
	SPIPORT |= (1<<CS);

}

void spi_send(uint8_t data){
	SPIC_DATA = data;	//write to data register
    1b32:	96 e3       	ldi	r25, 0x36	; 54
    1b34:	90 93 e3 08 	sts	0x08E3, r25	; 0x8008e3 <__TEXT_REGION_LENGTH__+0x7008e3>
	//_delay_ms(5);
	while(!(SPIC_STATUS & (1<<SPI_IF_bp))){}	//wait until the flag is set making data
    1b38:	90 91 e2 08 	lds	r25, 0x08E2	; 0x8008e2 <__TEXT_REGION_LENGTH__+0x7008e2>
    1b3c:	97 ff       	sbrs	r25, 7
    1b3e:	fc cf       	rjmp	.-8      	; 0x1b38 <setRotation+0x10>
}
void spi_writeCommand(uint8_t command){
	SPIPORT &= ~((1<<DC)|(1<<CS));		//dc and cs both set as low to send
	//_delay_us(5);						//delay 5us
	spi_send(command);
	SPIPORT |= (1<<CS);					//cs is set high
    1b40:	90 91 44 06 	lds	r25, 0x0644	; 0x800644 <__TEXT_REGION_LENGTH__+0x700644>
    1b44:	90 61       	ori	r25, 0x10	; 16
    1b46:	90 93 44 06 	sts	0x0644, r25	; 0x800644 <__TEXT_REGION_LENGTH__+0x700644>

void setRotation(uint8_t x){
	uint8_t rotation;
	spi_writeCommand(0x36);
	rotation=x;
	switch (rotation)
    1b4a:	81 30       	cpi	r24, 0x01	; 1
    1b4c:	09 f4       	brne	.+2      	; 0x1b50 <setRotation+0x28>
    1b4e:	5f c0       	rjmp	.+190    	; 0x1c0e <setRotation+0xe6>
    1b50:	08 f4       	brcc	.+2      	; 0x1b54 <setRotation+0x2c>
    1b52:	4b c0       	rjmp	.+150    	; 0x1bea <setRotation+0xc2>
    1b54:	82 30       	cpi	r24, 0x02	; 2
    1b56:	19 f0       	breq	.+6      	; 0x1b5e <setRotation+0x36>
    1b58:	83 30       	cpi	r24, 0x03	; 3
    1b5a:	21 f1       	breq	.+72     	; 0x1ba4 <setRotation+0x7c>
    1b5c:	08 95       	ret
	//_delay_us(5);						//delay 5us
	spi_send(command);
	SPIPORT |= (1<<CS);					//cs is set high
}
void spi_writeData(uint8_t data){
	SPIPORT |= (1<<DC);					//dc set high for data
    1b5e:	80 91 44 06 	lds	r24, 0x0644	; 0x800644 <__TEXT_REGION_LENGTH__+0x700644>
    1b62:	88 60       	ori	r24, 0x08	; 8
    1b64:	80 93 44 06 	sts	0x0644, r24	; 0x800644 <__TEXT_REGION_LENGTH__+0x700644>
	//_delay_us(1);
	SPIPORT &= ~(1<<CS);				//CS set high for
    1b68:	80 91 44 06 	lds	r24, 0x0644	; 0x800644 <__TEXT_REGION_LENGTH__+0x700644>
    1b6c:	8f 7e       	andi	r24, 0xEF	; 239
    1b6e:	80 93 44 06 	sts	0x0644, r24	; 0x800644 <__TEXT_REGION_LENGTH__+0x700644>
	SPIPORT |= (1<<CS);

}

void spi_send(uint8_t data){
	SPIC_DATA = data;	//write to data register
    1b72:	88 e8       	ldi	r24, 0x88	; 136
    1b74:	80 93 e3 08 	sts	0x08E3, r24	; 0x8008e3 <__TEXT_REGION_LENGTH__+0x7008e3>
	//_delay_ms(5);
	while(!(SPIC_STATUS & (1<<SPI_IF_bp))){}	//wait until the flag is set making data
    1b78:	80 91 e2 08 	lds	r24, 0x08E2	; 0x8008e2 <__TEXT_REGION_LENGTH__+0x7008e2>
    1b7c:	87 ff       	sbrs	r24, 7
    1b7e:	fc cf       	rjmp	.-8      	; 0x1b78 <setRotation+0x50>
	SPIPORT |= (1<<DC);					//dc set high for data
	//_delay_us(1);
	SPIPORT &= ~(1<<CS);				//CS set high for
	spi_send(data);
	//_delay_us(5);
	SPIPORT |= (1<<CS);
    1b80:	80 91 44 06 	lds	r24, 0x0644	; 0x800644 <__TEXT_REGION_LENGTH__+0x700644>
    1b84:	80 61       	ori	r24, 0x10	; 16
    1b86:	80 93 44 06 	sts	0x0644, r24	; 0x800644 <__TEXT_REGION_LENGTH__+0x700644>
		width  = 320;
		height = 240;
		break;
		case 2:
		spi_writeData(0x80|0x08);
		width  = 240;
    1b8a:	80 ef       	ldi	r24, 0xF0	; 240
    1b8c:	90 e0       	ldi	r25, 0x00	; 0
    1b8e:	80 93 4b 20 	sts	0x204B, r24	; 0x80204b <width>
    1b92:	90 93 4c 20 	sts	0x204C, r25	; 0x80204c <width+0x1>
		height = 320;
    1b96:	80 e4       	ldi	r24, 0x40	; 64
    1b98:	91 e0       	ldi	r25, 0x01	; 1
    1b9a:	80 93 49 20 	sts	0x2049, r24	; 0x802049 <height>
    1b9e:	90 93 4a 20 	sts	0x204A, r25	; 0x80204a <height+0x1>
		break;
    1ba2:	08 95       	ret
	//_delay_us(5);						//delay 5us
	spi_send(command);
	SPIPORT |= (1<<CS);					//cs is set high
}
void spi_writeData(uint8_t data){
	SPIPORT |= (1<<DC);					//dc set high for data
    1ba4:	80 91 44 06 	lds	r24, 0x0644	; 0x800644 <__TEXT_REGION_LENGTH__+0x700644>
    1ba8:	88 60       	ori	r24, 0x08	; 8
    1baa:	80 93 44 06 	sts	0x0644, r24	; 0x800644 <__TEXT_REGION_LENGTH__+0x700644>
	//_delay_us(1);
	SPIPORT &= ~(1<<CS);				//CS set high for
    1bae:	80 91 44 06 	lds	r24, 0x0644	; 0x800644 <__TEXT_REGION_LENGTH__+0x700644>
    1bb2:	8f 7e       	andi	r24, 0xEF	; 239
    1bb4:	80 93 44 06 	sts	0x0644, r24	; 0x800644 <__TEXT_REGION_LENGTH__+0x700644>
	SPIPORT |= (1<<CS);

}

void spi_send(uint8_t data){
	SPIC_DATA = data;	//write to data register
    1bb8:	88 ee       	ldi	r24, 0xE8	; 232
    1bba:	80 93 e3 08 	sts	0x08E3, r24	; 0x8008e3 <__TEXT_REGION_LENGTH__+0x7008e3>
	//_delay_ms(5);
	while(!(SPIC_STATUS & (1<<SPI_IF_bp))){}	//wait until the flag is set making data
    1bbe:	80 91 e2 08 	lds	r24, 0x08E2	; 0x8008e2 <__TEXT_REGION_LENGTH__+0x7008e2>
    1bc2:	87 ff       	sbrs	r24, 7
    1bc4:	fc cf       	rjmp	.-8      	; 0x1bbe <setRotation+0x96>
	SPIPORT |= (1<<DC);					//dc set high for data
	//_delay_us(1);
	SPIPORT &= ~(1<<CS);				//CS set high for
	spi_send(data);
	//_delay_us(5);
	SPIPORT |= (1<<CS);
    1bc6:	80 91 44 06 	lds	r24, 0x0644	; 0x800644 <__TEXT_REGION_LENGTH__+0x700644>
    1bca:	80 61       	ori	r24, 0x10	; 16
    1bcc:	80 93 44 06 	sts	0x0644, r24	; 0x800644 <__TEXT_REGION_LENGTH__+0x700644>
		width  = 240;
		height = 320;
		break;
		case 3:
		spi_writeData(0x40|0x80|0x20|0x08);
		width  = 320;
    1bd0:	80 e4       	ldi	r24, 0x40	; 64
    1bd2:	91 e0       	ldi	r25, 0x01	; 1
    1bd4:	80 93 4b 20 	sts	0x204B, r24	; 0x80204b <width>
    1bd8:	90 93 4c 20 	sts	0x204C, r25	; 0x80204c <width+0x1>
		height = 240;
    1bdc:	80 ef       	ldi	r24, 0xF0	; 240
    1bde:	90 e0       	ldi	r25, 0x00	; 0
    1be0:	80 93 49 20 	sts	0x2049, r24	; 0x802049 <height>
    1be4:	90 93 4a 20 	sts	0x204A, r25	; 0x80204a <height+0x1>
    1be8:	08 95       	ret
	//_delay_us(5);						//delay 5us
	spi_send(command);
	SPIPORT |= (1<<CS);					//cs is set high
}
void spi_writeData(uint8_t data){
	SPIPORT |= (1<<DC);					//dc set high for data
    1bea:	80 91 44 06 	lds	r24, 0x0644	; 0x800644 <__TEXT_REGION_LENGTH__+0x700644>
    1bee:	88 60       	ori	r24, 0x08	; 8
    1bf0:	80 93 44 06 	sts	0x0644, r24	; 0x800644 <__TEXT_REGION_LENGTH__+0x700644>
	//_delay_us(1);
	SPIPORT &= ~(1<<CS);				//CS set high for
    1bf4:	80 91 44 06 	lds	r24, 0x0644	; 0x800644 <__TEXT_REGION_LENGTH__+0x700644>
    1bf8:	8f 7e       	andi	r24, 0xEF	; 239
    1bfa:	80 93 44 06 	sts	0x0644, r24	; 0x800644 <__TEXT_REGION_LENGTH__+0x700644>
	SPIPORT |= (1<<CS);

}

void spi_send(uint8_t data){
	SPIC_DATA = data;	//write to data register
    1bfe:	88 e4       	ldi	r24, 0x48	; 72
    1c00:	80 93 e3 08 	sts	0x08E3, r24	; 0x8008e3 <__TEXT_REGION_LENGTH__+0x7008e3>
	//_delay_ms(5);
	while(!(SPIC_STATUS & (1<<SPI_IF_bp))){}	//wait until the flag is set making data
    1c04:	80 91 e2 08 	lds	r24, 0x08E2	; 0x8008e2 <__TEXT_REGION_LENGTH__+0x7008e2>
    1c08:	87 ff       	sbrs	r24, 7
    1c0a:	fc cf       	rjmp	.-8      	; 0x1c04 <setRotation+0xdc>
    1c0c:	b9 cf       	rjmp	.-142    	; 0x1b80 <setRotation+0x58>
	//_delay_us(5);						//delay 5us
	spi_send(command);
	SPIPORT |= (1<<CS);					//cs is set high
}
void spi_writeData(uint8_t data){
	SPIPORT |= (1<<DC);					//dc set high for data
    1c0e:	80 91 44 06 	lds	r24, 0x0644	; 0x800644 <__TEXT_REGION_LENGTH__+0x700644>
    1c12:	88 60       	ori	r24, 0x08	; 8
    1c14:	80 93 44 06 	sts	0x0644, r24	; 0x800644 <__TEXT_REGION_LENGTH__+0x700644>
	//_delay_us(1);
	SPIPORT &= ~(1<<CS);				//CS set high for
    1c18:	80 91 44 06 	lds	r24, 0x0644	; 0x800644 <__TEXT_REGION_LENGTH__+0x700644>
    1c1c:	8f 7e       	andi	r24, 0xEF	; 239
    1c1e:	80 93 44 06 	sts	0x0644, r24	; 0x800644 <__TEXT_REGION_LENGTH__+0x700644>
	SPIPORT |= (1<<CS);

}

void spi_send(uint8_t data){
	SPIC_DATA = data;	//write to data register
    1c22:	88 e2       	ldi	r24, 0x28	; 40
    1c24:	80 93 e3 08 	sts	0x08E3, r24	; 0x8008e3 <__TEXT_REGION_LENGTH__+0x7008e3>
	//_delay_ms(5);
	while(!(SPIC_STATUS & (1<<SPI_IF_bp))){}	//wait until the flag is set making data
    1c28:	80 91 e2 08 	lds	r24, 0x08E2	; 0x8008e2 <__TEXT_REGION_LENGTH__+0x7008e2>
    1c2c:	87 ff       	sbrs	r24, 7
    1c2e:	fc cf       	rjmp	.-8      	; 0x1c28 <setRotation+0x100>
    1c30:	ca cf       	rjmp	.-108    	; 0x1bc6 <setRotation+0x9e>

00001c32 <startupScreen>:
	gfx_setCursor(20,180);
	sprintf(value, "%.3f", voltage1);
	gfx_println(value);
	//return value;
    }
void startupScreen(){
    1c32:	cf 92       	push	r12
    1c34:	df 92       	push	r13
    1c36:	ef 92       	push	r14
    1c38:	ff 92       	push	r15
    1c3a:	0f 93       	push	r16
    1c3c:	1f 93       	push	r17
    1c3e:	cf 93       	push	r28
    1c40:	df 93       	push	r29
    1c42:	80 e4       	ldi	r24, 0x40	; 64
    1c44:	c8 2e       	mov	r12, r24
    1c46:	dd 24       	eor	r13, r13
    1c48:	d3 94       	inc	r13
	int color = 0;
	int a = 0;
	int axis = 0;
	for(int i = 0; i<((TFTWIDTH-130)/2) ; i=i+5){
    1c4a:	e1 2c       	mov	r14, r1
    1c4c:	f1 2c       	mov	r15, r1
	gfx_println(value);
	//return value;
    }
void startupScreen(){
	int color = 0;
	int a = 0;
    1c4e:	c0 e0       	ldi	r28, 0x00	; 0
    1c50:	d0 e0       	ldi	r29, 0x00	; 0
	int axis = 0;
	for(int i = 0; i<((TFTWIDTH-130)/2) ; i=i+5){
		if((a%2) == 0){
    1c52:	8e 01       	movw	r16, r28
    1c54:	01 70       	andi	r16, 0x01	; 1
    1c56:	11 27       	eor	r17, r17
			color = ILI9341_WHITE;
		}
		else{
			color = ILI9341_BLACK;
		}
		a++;
    1c58:	21 96       	adiw	r28, 0x01	; 1
    1c5a:	21 e0       	ldi	r18, 0x01	; 1
    1c5c:	02 27       	eor	r16, r18
void startupScreen(){
	int color = 0;
	int a = 0;
	int axis = 0;
	for(int i = 0; i<((TFTWIDTH-130)/2) ; i=i+5){
		if((a%2) == 0){
    1c5e:	11 95       	neg	r17
    1c60:	01 95       	neg	r16
    1c62:	11 09       	sbc	r17, r1
    1c64:	96 01       	movw	r18, r12
    1c66:	20 55       	subi	r18, 0x50	; 80
    1c68:	31 09       	sbc	r19, r1
		}
		else{
			color = ILI9341_BLACK;
		}
		a++;
		fillrect(i,i, (TFTWIDTH-(2*i)), (TFTHEIGHT-(2*i)), color);
    1c6a:	a6 01       	movw	r20, r12
    1c6c:	b7 01       	movw	r22, r14
    1c6e:	c7 01       	movw	r24, r14
    1c70:	0e 94 41 0d 	call	0x1a82	; 0x1a82 <fillrect>
    }
void startupScreen(){
	int color = 0;
	int a = 0;
	int axis = 0;
	for(int i = 0; i<((TFTWIDTH-130)/2) ; i=i+5){
    1c74:	85 e0       	ldi	r24, 0x05	; 5
    1c76:	e8 0e       	add	r14, r24
    1c78:	f1 1c       	adc	r15, r1
    1c7a:	9a e0       	ldi	r25, 0x0A	; 10
    1c7c:	c9 1a       	sub	r12, r25
    1c7e:	d1 08       	sbc	r13, r1
    1c80:	c3 31       	cpi	r28, 0x13	; 19
    1c82:	d1 05       	cpc	r29, r1
    1c84:	31 f7       	brne	.-52     	; 0x1c52 <startupScreen+0x20>
		}
		a++;
		fillrect(i,i, (TFTWIDTH-(2*i)), (TFTHEIGHT-(2*i)), color);
		axis = i;
	}
	gfx_setCursor(axis+10, axis+10);
    1c86:	64 e6       	ldi	r22, 0x64	; 100
    1c88:	70 e0       	ldi	r23, 0x00	; 0
    1c8a:	84 e6       	ldi	r24, 0x64	; 100
    1c8c:	90 e0       	ldi	r25, 0x00	; 0
    1c8e:	0e 94 33 04 	call	0x866	; 0x866 <gfx_setCursor>
	gfx_setBgColor(ILI9341_WHITE);
    1c92:	8f ef       	ldi	r24, 0xFF	; 255
    1c94:	9f ef       	ldi	r25, 0xFF	; 255
    1c96:	0e 94 41 04 	call	0x882	; 0x882 <gfx_setBgColor>
	gfx_setTextColor(ILI9341_RED);
    1c9a:	80 e0       	ldi	r24, 0x00	; 0
    1c9c:	98 ef       	ldi	r25, 0xF8	; 248
    1c9e:	0e 94 3c 04 	call	0x878	; 0x878 <gfx_setTextColor>
	gfx_setTextSize(3);
    1ca2:	83 e0       	ldi	r24, 0x03	; 3
    1ca4:	0e 94 46 04 	call	0x88c	; 0x88c <gfx_setTextSize>
	//setRotation(3);
	gfx_print("ESE 323");
    1ca8:	85 e0       	ldi	r24, 0x05	; 5
    1caa:	90 e2       	ldi	r25, 0x20	; 32
    1cac:	0e 94 8f 04 	call	0x91e	; 0x91e <gfx_print>
	#else
		//round up by default
		__ticks_dc = (uint32_t)(ceil(fabs(__tmp)));
	#endif

	__builtin_avr_delay_cycles(__ticks_dc);
    1cb0:	2f eb       	ldi	r18, 0xBF	; 191
    1cb2:	86 ec       	ldi	r24, 0xC6	; 198
    1cb4:	9d e2       	ldi	r25, 0x2D	; 45
    1cb6:	21 50       	subi	r18, 0x01	; 1
    1cb8:	80 40       	sbci	r24, 0x00	; 0
    1cba:	90 40       	sbci	r25, 0x00	; 0
    1cbc:	e1 f7       	brne	.-8      	; 0x1cb6 <startupScreen+0x84>
    1cbe:	00 c0       	rjmp	.+0      	; 0x1cc0 <startupScreen+0x8e>
    1cc0:	00 00       	nop

	_delay_ms(15000);
}
    1cc2:	df 91       	pop	r29
    1cc4:	cf 91       	pop	r28
    1cc6:	1f 91       	pop	r17
    1cc8:	0f 91       	pop	r16
    1cca:	ff 90       	pop	r15
    1ccc:	ef 90       	pop	r14
    1cce:	df 90       	pop	r13
    1cd0:	cf 90       	pop	r12
    1cd2:	08 95       	ret

00001cd4 <main>:

int main(void)
{
	begin();					//initialize spi driver
    1cd4:	0e 94 b2 05 	call	0xb64	; 0xb64 <begin>
	setRotation(3);
    1cd8:	83 e0       	ldi	r24, 0x03	; 3
    1cda:	90 e0       	ldi	r25, 0x00	; 0
    1cdc:	0e 94 94 0d 	call	0x1b28	; 0x1b28 <setRotation>
	clear(ILI9341_ORANGERED);
    1ce0:	80 e2       	ldi	r24, 0x20	; 32
    1ce2:	9a ef       	ldi	r25, 0xFA	; 250
    1ce4:	0e 94 da 0c 	call	0x19b4	; 0x19b4 <clear>
	startupScreen();				//random background generator
    1ce8:	0e 94 19 0e 	call	0x1c32	; 0x1c32 <startupScreen>
	gfx_setTextColor(ILI9341_BLUE);
    1cec:	8f e1       	ldi	r24, 0x1F	; 31
    1cee:	90 e0       	ldi	r25, 0x00	; 0
    1cf0:	0e 94 3c 04 	call	0x878	; 0x878 <gfx_setTextColor>
	gfx_setCursor(0, 20);
    1cf4:	64 e1       	ldi	r22, 0x14	; 20
    1cf6:	70 e0       	ldi	r23, 0x00	; 0
    1cf8:	80 e0       	ldi	r24, 0x00	; 0
    1cfa:	90 e0       	ldi	r25, 0x00	; 0
    1cfc:	0e 94 33 04 	call	0x866	; 0x866 <gfx_setCursor>
	gfx_setTextSize(5);
    1d00:	85 e0       	ldi	r24, 0x05	; 5
    1d02:	0e 94 46 04 	call	0x88c	; 0x88c <gfx_setTextSize>
	gfx_setBgColor(ILI9341_ORANGERED);
    1d06:	80 e2       	ldi	r24, 0x20	; 32
    1d08:	9a ef       	ldi	r25, 0xFA	; 250
    1d0a:	0e 94 41 04 	call	0x882	; 0x882 <gfx_setBgColor>
	
	clear(ILI9341_ORANGERED);		//clear the
    1d0e:	80 e2       	ldi	r24, 0x20	; 32
    1d10:	9a ef       	ldi	r25, 0xFA	; 250
    1d12:	0e 94 da 0c 	call	0x19b4	; 0x19b4 <clear>
					//change this between 0 and 3 depending on the orientation of the
	//gfx_print('hey');
	gfx_print("Coded by");
    1d16:	8d e0       	ldi	r24, 0x0D	; 13
    1d18:	90 e2       	ldi	r25, 0x20	; 32
    1d1a:	0e 94 8f 04 	call	0x91e	; 0x91e <gfx_print>
	gfx_write('\n');
    1d1e:	8a e0       	ldi	r24, 0x0A	; 10
    1d20:	0e 94 49 04 	call	0x892	; 0x892 <gfx_write>
	gfx_setCursor(0, 100);
    1d24:	64 e6       	ldi	r22, 0x64	; 100
    1d26:	70 e0       	ldi	r23, 0x00	; 0
    1d28:	80 e0       	ldi	r24, 0x00	; 0
    1d2a:	90 e0       	ldi	r25, 0x00	; 0
    1d2c:	0e 94 33 04 	call	0x866	; 0x866 <gfx_setCursor>
	gfx_print("DAN CAO");
    1d30:	86 e1       	ldi	r24, 0x16	; 22
    1d32:	90 e2       	ldi	r25, 0x20	; 32
    1d34:	0e 94 8f 04 	call	0x91e	; 0x91e <gfx_print>
	
	gfx_setTextSize(2);
    1d38:	82 e0       	ldi	r24, 0x02	; 2
    1d3a:	0e 94 46 04 	call	0x88c	; 0x88c <gfx_setTextSize>
	gfx_setTextColor(ILI9341_YELLOW);
    1d3e:	80 ee       	ldi	r24, 0xE0	; 224
    1d40:	9f ef       	ldi	r25, 0xFF	; 255
    1d42:	0e 94 3c 04 	call	0x878	; 0x878 <gfx_setTextColor>
	gfx_setCursor(0, 160);
    1d46:	60 ea       	ldi	r22, 0xA0	; 160
    1d48:	70 e0       	ldi	r23, 0x00	; 0
    1d4a:	80 e0       	ldi	r24, 0x00	; 0
    1d4c:	90 e0       	ldi	r25, 0x00	; 0
    1d4e:	0e 94 33 04 	call	0x866	; 0x866 <gfx_setCursor>
	gfx_print("ESE 323 - Fall 2016");
    1d52:	8e e1       	ldi	r24, 0x1E	; 30
    1d54:	90 e2       	ldi	r25, 0x20	; 32
    1d56:	0e 94 8f 04 	call	0x91e	; 0x91e <gfx_print>
	gfx_setTextColor(ILI9341_DEEPPINK);
    1d5a:	82 eb       	ldi	r24, 0xB2	; 178
    1d5c:	98 ef       	ldi	r25, 0xF8	; 248
    1d5e:	0e 94 3c 04 	call	0x878	; 0x878 <gfx_setTextColor>
	gfx_setCursor(20,120);
    1d62:	68 e7       	ldi	r22, 0x78	; 120
    1d64:	70 e0       	ldi	r23, 0x00	; 0
    1d66:	84 e1       	ldi	r24, 0x14	; 20
    1d68:	90 e0       	ldi	r25, 0x00	; 0
    1d6a:	0e 94 33 04 	call	0x866	; 0x866 <gfx_setCursor>
		*/
		//readADC();
		//snake_update(1);
		//_delay_ms(10000);
		//Snake_display();
	}
    1d6e:	ff cf       	rjmp	.-2      	; 0x1d6e <main+0x9a>

00001d70 <vfprintf>:
    1d70:	a3 e1       	ldi	r26, 0x13	; 19
    1d72:	b0 e0       	ldi	r27, 0x00	; 0
    1d74:	ee eb       	ldi	r30, 0xBE	; 190
    1d76:	fe e0       	ldi	r31, 0x0E	; 14
    1d78:	0c 94 34 12 	jmp	0x2468	; 0x2468 <__prologue_saves__>
    1d7c:	6c 01       	movw	r12, r24
    1d7e:	4b 01       	movw	r8, r22
    1d80:	2a 01       	movw	r4, r20
    1d82:	fc 01       	movw	r30, r24
    1d84:	16 82       	std	Z+6, r1	; 0x06
    1d86:	17 82       	std	Z+7, r1	; 0x07
    1d88:	83 81       	ldd	r24, Z+3	; 0x03
    1d8a:	81 ff       	sbrs	r24, 1
    1d8c:	43 c3       	rjmp	.+1670   	; 0x2414 <vfprintf+0x6a4>
    1d8e:	ae 01       	movw	r20, r28
    1d90:	4f 5f       	subi	r20, 0xFF	; 255
    1d92:	5f 4f       	sbci	r21, 0xFF	; 255
    1d94:	3a 01       	movw	r6, r20
    1d96:	f6 01       	movw	r30, r12
    1d98:	93 81       	ldd	r25, Z+3	; 0x03
    1d9a:	f4 01       	movw	r30, r8
    1d9c:	93 fd       	sbrc	r25, 3
    1d9e:	85 91       	lpm	r24, Z+
    1da0:	93 ff       	sbrs	r25, 3
    1da2:	81 91       	ld	r24, Z+
    1da4:	4f 01       	movw	r8, r30
    1da6:	88 23       	and	r24, r24
    1da8:	09 f4       	brne	.+2      	; 0x1dac <vfprintf+0x3c>
    1daa:	30 c3       	rjmp	.+1632   	; 0x240c <vfprintf+0x69c>
    1dac:	85 32       	cpi	r24, 0x25	; 37
    1dae:	39 f4       	brne	.+14     	; 0x1dbe <vfprintf+0x4e>
    1db0:	93 fd       	sbrc	r25, 3
    1db2:	85 91       	lpm	r24, Z+
    1db4:	93 ff       	sbrs	r25, 3
    1db6:	81 91       	ld	r24, Z+
    1db8:	4f 01       	movw	r8, r30
    1dba:	85 32       	cpi	r24, 0x25	; 37
    1dbc:	39 f4       	brne	.+14     	; 0x1dcc <vfprintf+0x5c>
    1dbe:	b6 01       	movw	r22, r12
    1dc0:	90 e0       	ldi	r25, 0x00	; 0
    1dc2:	0e 94 53 13 	call	0x26a6	; 0x26a6 <fputc>
    1dc6:	52 01       	movw	r10, r4
    1dc8:	25 01       	movw	r4, r10
    1dca:	e5 cf       	rjmp	.-54     	; 0x1d96 <vfprintf+0x26>
    1dcc:	10 e0       	ldi	r17, 0x00	; 0
    1dce:	f1 2c       	mov	r15, r1
    1dd0:	20 e0       	ldi	r18, 0x00	; 0
    1dd2:	20 32       	cpi	r18, 0x20	; 32
    1dd4:	a0 f4       	brcc	.+40     	; 0x1dfe <vfprintf+0x8e>
    1dd6:	8b 32       	cpi	r24, 0x2B	; 43
    1dd8:	69 f0       	breq	.+26     	; 0x1df4 <vfprintf+0x84>
    1dda:	30 f4       	brcc	.+12     	; 0x1de8 <vfprintf+0x78>
    1ddc:	80 32       	cpi	r24, 0x20	; 32
    1dde:	59 f0       	breq	.+22     	; 0x1df6 <vfprintf+0x86>
    1de0:	83 32       	cpi	r24, 0x23	; 35
    1de2:	69 f4       	brne	.+26     	; 0x1dfe <vfprintf+0x8e>
    1de4:	20 61       	ori	r18, 0x10	; 16
    1de6:	2c c0       	rjmp	.+88     	; 0x1e40 <vfprintf+0xd0>
    1de8:	8d 32       	cpi	r24, 0x2D	; 45
    1dea:	39 f0       	breq	.+14     	; 0x1dfa <vfprintf+0x8a>
    1dec:	80 33       	cpi	r24, 0x30	; 48
    1dee:	39 f4       	brne	.+14     	; 0x1dfe <vfprintf+0x8e>
    1df0:	21 60       	ori	r18, 0x01	; 1
    1df2:	26 c0       	rjmp	.+76     	; 0x1e40 <vfprintf+0xd0>
    1df4:	22 60       	ori	r18, 0x02	; 2
    1df6:	24 60       	ori	r18, 0x04	; 4
    1df8:	23 c0       	rjmp	.+70     	; 0x1e40 <vfprintf+0xd0>
    1dfa:	28 60       	ori	r18, 0x08	; 8
    1dfc:	21 c0       	rjmp	.+66     	; 0x1e40 <vfprintf+0xd0>
    1dfe:	27 fd       	sbrc	r18, 7
    1e00:	27 c0       	rjmp	.+78     	; 0x1e50 <vfprintf+0xe0>
    1e02:	30 ed       	ldi	r19, 0xD0	; 208
    1e04:	38 0f       	add	r19, r24
    1e06:	3a 30       	cpi	r19, 0x0A	; 10
    1e08:	78 f4       	brcc	.+30     	; 0x1e28 <vfprintf+0xb8>
    1e0a:	26 ff       	sbrs	r18, 6
    1e0c:	06 c0       	rjmp	.+12     	; 0x1e1a <vfprintf+0xaa>
    1e0e:	fa e0       	ldi	r31, 0x0A	; 10
    1e10:	1f 9f       	mul	r17, r31
    1e12:	30 0d       	add	r19, r0
    1e14:	11 24       	eor	r1, r1
    1e16:	13 2f       	mov	r17, r19
    1e18:	13 c0       	rjmp	.+38     	; 0x1e40 <vfprintf+0xd0>
    1e1a:	4a e0       	ldi	r20, 0x0A	; 10
    1e1c:	f4 9e       	mul	r15, r20
    1e1e:	30 0d       	add	r19, r0
    1e20:	11 24       	eor	r1, r1
    1e22:	f3 2e       	mov	r15, r19
    1e24:	20 62       	ori	r18, 0x20	; 32
    1e26:	0c c0       	rjmp	.+24     	; 0x1e40 <vfprintf+0xd0>
    1e28:	8e 32       	cpi	r24, 0x2E	; 46
    1e2a:	21 f4       	brne	.+8      	; 0x1e34 <vfprintf+0xc4>
    1e2c:	26 fd       	sbrc	r18, 6
    1e2e:	ee c2       	rjmp	.+1500   	; 0x240c <vfprintf+0x69c>
    1e30:	20 64       	ori	r18, 0x40	; 64
    1e32:	06 c0       	rjmp	.+12     	; 0x1e40 <vfprintf+0xd0>
    1e34:	8c 36       	cpi	r24, 0x6C	; 108
    1e36:	11 f4       	brne	.+4      	; 0x1e3c <vfprintf+0xcc>
    1e38:	20 68       	ori	r18, 0x80	; 128
    1e3a:	02 c0       	rjmp	.+4      	; 0x1e40 <vfprintf+0xd0>
    1e3c:	88 36       	cpi	r24, 0x68	; 104
    1e3e:	41 f4       	brne	.+16     	; 0x1e50 <vfprintf+0xe0>
    1e40:	f4 01       	movw	r30, r8
    1e42:	93 fd       	sbrc	r25, 3
    1e44:	85 91       	lpm	r24, Z+
    1e46:	93 ff       	sbrs	r25, 3
    1e48:	81 91       	ld	r24, Z+
    1e4a:	4f 01       	movw	r8, r30
    1e4c:	81 11       	cpse	r24, r1
    1e4e:	c1 cf       	rjmp	.-126    	; 0x1dd2 <vfprintf+0x62>
    1e50:	9b eb       	ldi	r25, 0xBB	; 187
    1e52:	98 0f       	add	r25, r24
    1e54:	93 30       	cpi	r25, 0x03	; 3
    1e56:	18 f4       	brcc	.+6      	; 0x1e5e <vfprintf+0xee>
    1e58:	20 61       	ori	r18, 0x10	; 16
    1e5a:	80 5e       	subi	r24, 0xE0	; 224
    1e5c:	06 c0       	rjmp	.+12     	; 0x1e6a <vfprintf+0xfa>
    1e5e:	9b e9       	ldi	r25, 0x9B	; 155
    1e60:	98 0f       	add	r25, r24
    1e62:	93 30       	cpi	r25, 0x03	; 3
    1e64:	08 f0       	brcs	.+2      	; 0x1e68 <vfprintf+0xf8>
    1e66:	71 c1       	rjmp	.+738    	; 0x214a <vfprintf+0x3da>
    1e68:	2f 7e       	andi	r18, 0xEF	; 239
    1e6a:	26 ff       	sbrs	r18, 6
    1e6c:	16 e0       	ldi	r17, 0x06	; 6
    1e6e:	2f 73       	andi	r18, 0x3F	; 63
    1e70:	32 2e       	mov	r3, r18
    1e72:	85 36       	cpi	r24, 0x65	; 101
    1e74:	19 f4       	brne	.+6      	; 0x1e7c <vfprintf+0x10c>
    1e76:	20 64       	ori	r18, 0x40	; 64
    1e78:	32 2e       	mov	r3, r18
    1e7a:	08 c0       	rjmp	.+16     	; 0x1e8c <vfprintf+0x11c>
    1e7c:	86 36       	cpi	r24, 0x66	; 102
    1e7e:	21 f4       	brne	.+8      	; 0x1e88 <vfprintf+0x118>
    1e80:	f2 2f       	mov	r31, r18
    1e82:	f0 68       	ori	r31, 0x80	; 128
    1e84:	3f 2e       	mov	r3, r31
    1e86:	02 c0       	rjmp	.+4      	; 0x1e8c <vfprintf+0x11c>
    1e88:	11 11       	cpse	r17, r1
    1e8a:	11 50       	subi	r17, 0x01	; 1
    1e8c:	37 fe       	sbrs	r3, 7
    1e8e:	07 c0       	rjmp	.+14     	; 0x1e9e <vfprintf+0x12e>
    1e90:	1c 33       	cpi	r17, 0x3C	; 60
    1e92:	50 f4       	brcc	.+20     	; 0x1ea8 <vfprintf+0x138>
    1e94:	ee 24       	eor	r14, r14
    1e96:	e3 94       	inc	r14
    1e98:	e1 0e       	add	r14, r17
    1e9a:	27 e0       	ldi	r18, 0x07	; 7
    1e9c:	0b c0       	rjmp	.+22     	; 0x1eb4 <vfprintf+0x144>
    1e9e:	18 30       	cpi	r17, 0x08	; 8
    1ea0:	38 f0       	brcs	.+14     	; 0x1eb0 <vfprintf+0x140>
    1ea2:	27 e0       	ldi	r18, 0x07	; 7
    1ea4:	17 e0       	ldi	r17, 0x07	; 7
    1ea6:	05 c0       	rjmp	.+10     	; 0x1eb2 <vfprintf+0x142>
    1ea8:	27 e0       	ldi	r18, 0x07	; 7
    1eaa:	4c e3       	ldi	r20, 0x3C	; 60
    1eac:	e4 2e       	mov	r14, r20
    1eae:	02 c0       	rjmp	.+4      	; 0x1eb4 <vfprintf+0x144>
    1eb0:	21 2f       	mov	r18, r17
    1eb2:	e1 2c       	mov	r14, r1
    1eb4:	52 01       	movw	r10, r4
    1eb6:	44 e0       	ldi	r20, 0x04	; 4
    1eb8:	a4 0e       	add	r10, r20
    1eba:	b1 1c       	adc	r11, r1
    1ebc:	f2 01       	movw	r30, r4
    1ebe:	60 81       	ld	r22, Z
    1ec0:	71 81       	ldd	r23, Z+1	; 0x01
    1ec2:	82 81       	ldd	r24, Z+2	; 0x02
    1ec4:	93 81       	ldd	r25, Z+3	; 0x03
    1ec6:	0e 2d       	mov	r16, r14
    1ec8:	a3 01       	movw	r20, r6
    1eca:	0e 94 65 12 	call	0x24ca	; 0x24ca <__ftoa_engine>
    1ece:	2c 01       	movw	r4, r24
    1ed0:	09 81       	ldd	r16, Y+1	; 0x01
    1ed2:	00 ff       	sbrs	r16, 0
    1ed4:	02 c0       	rjmp	.+4      	; 0x1eda <vfprintf+0x16a>
    1ed6:	03 ff       	sbrs	r16, 3
    1ed8:	07 c0       	rjmp	.+14     	; 0x1ee8 <vfprintf+0x178>
    1eda:	31 fc       	sbrc	r3, 1
    1edc:	08 c0       	rjmp	.+16     	; 0x1eee <vfprintf+0x17e>
    1ede:	32 fe       	sbrs	r3, 2
    1ee0:	09 c0       	rjmp	.+18     	; 0x1ef4 <vfprintf+0x184>
    1ee2:	30 e2       	ldi	r19, 0x20	; 32
    1ee4:	23 2e       	mov	r2, r19
    1ee6:	07 c0       	rjmp	.+14     	; 0x1ef6 <vfprintf+0x186>
    1ee8:	2d e2       	ldi	r18, 0x2D	; 45
    1eea:	22 2e       	mov	r2, r18
    1eec:	04 c0       	rjmp	.+8      	; 0x1ef6 <vfprintf+0x186>
    1eee:	9b e2       	ldi	r25, 0x2B	; 43
    1ef0:	29 2e       	mov	r2, r25
    1ef2:	01 c0       	rjmp	.+2      	; 0x1ef6 <vfprintf+0x186>
    1ef4:	21 2c       	mov	r2, r1
    1ef6:	80 2f       	mov	r24, r16
    1ef8:	8c 70       	andi	r24, 0x0C	; 12
    1efa:	19 f0       	breq	.+6      	; 0x1f02 <vfprintf+0x192>
    1efc:	21 10       	cpse	r2, r1
    1efe:	68 c2       	rjmp	.+1232   	; 0x23d0 <vfprintf+0x660>
    1f00:	a8 c2       	rjmp	.+1360   	; 0x2452 <vfprintf+0x6e2>
    1f02:	37 fe       	sbrs	r3, 7
    1f04:	0f c0       	rjmp	.+30     	; 0x1f24 <vfprintf+0x1b4>
    1f06:	e4 0c       	add	r14, r4
    1f08:	04 ff       	sbrs	r16, 4
    1f0a:	04 c0       	rjmp	.+8      	; 0x1f14 <vfprintf+0x1a4>
    1f0c:	8a 81       	ldd	r24, Y+2	; 0x02
    1f0e:	81 33       	cpi	r24, 0x31	; 49
    1f10:	09 f4       	brne	.+2      	; 0x1f14 <vfprintf+0x1a4>
    1f12:	ea 94       	dec	r14
    1f14:	1e 14       	cp	r1, r14
    1f16:	74 f5       	brge	.+92     	; 0x1f74 <vfprintf+0x204>
    1f18:	f8 e0       	ldi	r31, 0x08	; 8
    1f1a:	fe 15       	cp	r31, r14
    1f1c:	78 f5       	brcc	.+94     	; 0x1f7c <vfprintf+0x20c>
    1f1e:	88 e0       	ldi	r24, 0x08	; 8
    1f20:	e8 2e       	mov	r14, r24
    1f22:	2c c0       	rjmp	.+88     	; 0x1f7c <vfprintf+0x20c>
    1f24:	36 fc       	sbrc	r3, 6
    1f26:	2a c0       	rjmp	.+84     	; 0x1f7c <vfprintf+0x20c>
    1f28:	81 2f       	mov	r24, r17
    1f2a:	90 e0       	ldi	r25, 0x00	; 0
    1f2c:	84 15       	cp	r24, r4
    1f2e:	95 05       	cpc	r25, r5
    1f30:	9c f0       	brlt	.+38     	; 0x1f58 <vfprintf+0x1e8>
    1f32:	2c ef       	ldi	r18, 0xFC	; 252
    1f34:	42 16       	cp	r4, r18
    1f36:	2f ef       	ldi	r18, 0xFF	; 255
    1f38:	52 06       	cpc	r5, r18
    1f3a:	74 f0       	brlt	.+28     	; 0x1f58 <vfprintf+0x1e8>
    1f3c:	43 2d       	mov	r20, r3
    1f3e:	40 68       	ori	r20, 0x80	; 128
    1f40:	34 2e       	mov	r3, r20
    1f42:	0a c0       	rjmp	.+20     	; 0x1f58 <vfprintf+0x1e8>
    1f44:	e2 e0       	ldi	r30, 0x02	; 2
    1f46:	f0 e0       	ldi	r31, 0x00	; 0
    1f48:	ec 0f       	add	r30, r28
    1f4a:	fd 1f       	adc	r31, r29
    1f4c:	e1 0f       	add	r30, r17
    1f4e:	f1 1d       	adc	r31, r1
    1f50:	80 81       	ld	r24, Z
    1f52:	80 33       	cpi	r24, 0x30	; 48
    1f54:	19 f4       	brne	.+6      	; 0x1f5c <vfprintf+0x1ec>
    1f56:	11 50       	subi	r17, 0x01	; 1
    1f58:	11 11       	cpse	r17, r1
    1f5a:	f4 cf       	rjmp	.-24     	; 0x1f44 <vfprintf+0x1d4>
    1f5c:	37 fe       	sbrs	r3, 7
    1f5e:	0e c0       	rjmp	.+28     	; 0x1f7c <vfprintf+0x20c>
    1f60:	ee 24       	eor	r14, r14
    1f62:	e3 94       	inc	r14
    1f64:	e1 0e       	add	r14, r17
    1f66:	81 2f       	mov	r24, r17
    1f68:	90 e0       	ldi	r25, 0x00	; 0
    1f6a:	48 16       	cp	r4, r24
    1f6c:	59 06       	cpc	r5, r25
    1f6e:	2c f4       	brge	.+10     	; 0x1f7a <vfprintf+0x20a>
    1f70:	14 19       	sub	r17, r4
    1f72:	04 c0       	rjmp	.+8      	; 0x1f7c <vfprintf+0x20c>
    1f74:	ee 24       	eor	r14, r14
    1f76:	e3 94       	inc	r14
    1f78:	01 c0       	rjmp	.+2      	; 0x1f7c <vfprintf+0x20c>
    1f7a:	10 e0       	ldi	r17, 0x00	; 0
    1f7c:	37 fe       	sbrs	r3, 7
    1f7e:	06 c0       	rjmp	.+12     	; 0x1f8c <vfprintf+0x21c>
    1f80:	14 14       	cp	r1, r4
    1f82:	15 04       	cpc	r1, r5
    1f84:	34 f4       	brge	.+12     	; 0x1f92 <vfprintf+0x222>
    1f86:	c2 01       	movw	r24, r4
    1f88:	01 96       	adiw	r24, 0x01	; 1
    1f8a:	05 c0       	rjmp	.+10     	; 0x1f96 <vfprintf+0x226>
    1f8c:	85 e0       	ldi	r24, 0x05	; 5
    1f8e:	90 e0       	ldi	r25, 0x00	; 0
    1f90:	02 c0       	rjmp	.+4      	; 0x1f96 <vfprintf+0x226>
    1f92:	81 e0       	ldi	r24, 0x01	; 1
    1f94:	90 e0       	ldi	r25, 0x00	; 0
    1f96:	21 10       	cpse	r2, r1
    1f98:	01 96       	adiw	r24, 0x01	; 1
    1f9a:	11 23       	and	r17, r17
    1f9c:	31 f0       	breq	.+12     	; 0x1faa <vfprintf+0x23a>
    1f9e:	21 2f       	mov	r18, r17
    1fa0:	30 e0       	ldi	r19, 0x00	; 0
    1fa2:	2f 5f       	subi	r18, 0xFF	; 255
    1fa4:	3f 4f       	sbci	r19, 0xFF	; 255
    1fa6:	82 0f       	add	r24, r18
    1fa8:	93 1f       	adc	r25, r19
    1faa:	2f 2d       	mov	r18, r15
    1fac:	30 e0       	ldi	r19, 0x00	; 0
    1fae:	82 17       	cp	r24, r18
    1fb0:	93 07       	cpc	r25, r19
    1fb2:	14 f4       	brge	.+4      	; 0x1fb8 <vfprintf+0x248>
    1fb4:	f8 1a       	sub	r15, r24
    1fb6:	01 c0       	rjmp	.+2      	; 0x1fba <vfprintf+0x24a>
    1fb8:	f1 2c       	mov	r15, r1
    1fba:	83 2d       	mov	r24, r3
    1fbc:	89 70       	andi	r24, 0x09	; 9
    1fbe:	49 f4       	brne	.+18     	; 0x1fd2 <vfprintf+0x262>
    1fc0:	ff 20       	and	r15, r15
    1fc2:	39 f0       	breq	.+14     	; 0x1fd2 <vfprintf+0x262>
    1fc4:	b6 01       	movw	r22, r12
    1fc6:	80 e2       	ldi	r24, 0x20	; 32
    1fc8:	90 e0       	ldi	r25, 0x00	; 0
    1fca:	0e 94 53 13 	call	0x26a6	; 0x26a6 <fputc>
    1fce:	fa 94       	dec	r15
    1fd0:	f7 cf       	rjmp	.-18     	; 0x1fc0 <vfprintf+0x250>
    1fd2:	22 20       	and	r2, r2
    1fd4:	29 f0       	breq	.+10     	; 0x1fe0 <vfprintf+0x270>
    1fd6:	b6 01       	movw	r22, r12
    1fd8:	82 2d       	mov	r24, r2
    1fda:	90 e0       	ldi	r25, 0x00	; 0
    1fdc:	0e 94 53 13 	call	0x26a6	; 0x26a6 <fputc>
    1fe0:	33 fc       	sbrc	r3, 3
    1fe2:	09 c0       	rjmp	.+18     	; 0x1ff6 <vfprintf+0x286>
    1fe4:	ff 20       	and	r15, r15
    1fe6:	39 f0       	breq	.+14     	; 0x1ff6 <vfprintf+0x286>
    1fe8:	b6 01       	movw	r22, r12
    1fea:	80 e3       	ldi	r24, 0x30	; 48
    1fec:	90 e0       	ldi	r25, 0x00	; 0
    1fee:	0e 94 53 13 	call	0x26a6	; 0x26a6 <fputc>
    1ff2:	fa 94       	dec	r15
    1ff4:	f7 cf       	rjmp	.-18     	; 0x1fe4 <vfprintf+0x274>
    1ff6:	37 fe       	sbrs	r3, 7
    1ff8:	5a c0       	rjmp	.+180    	; 0x20ae <vfprintf+0x33e>
    1ffa:	94 2d       	mov	r25, r4
    1ffc:	85 2d       	mov	r24, r5
    1ffe:	57 fe       	sbrs	r5, 7
    2000:	02 c0       	rjmp	.+4      	; 0x2006 <vfprintf+0x296>
    2002:	90 e0       	ldi	r25, 0x00	; 0
    2004:	80 e0       	ldi	r24, 0x00	; 0
    2006:	29 2e       	mov	r2, r25
    2008:	38 2e       	mov	r3, r24
    200a:	20 e0       	ldi	r18, 0x00	; 0
    200c:	30 e0       	ldi	r19, 0x00	; 0
    200e:	a2 01       	movw	r20, r4
    2010:	4e 19       	sub	r20, r14
    2012:	51 09       	sbc	r21, r1
    2014:	4c 87       	std	Y+12, r20	; 0x0c
    2016:	5d 87       	std	Y+13, r21	; 0x0d
    2018:	a2 01       	movw	r20, r4
    201a:	42 19       	sub	r20, r2
    201c:	53 09       	sbc	r21, r3
    201e:	4e 87       	std	Y+14, r20	; 0x0e
    2020:	5f 87       	std	Y+15, r21	; 0x0f
    2022:	61 2f       	mov	r22, r17
    2024:	70 e0       	ldi	r23, 0x00	; 0
    2026:	44 27       	eor	r20, r20
    2028:	55 27       	eor	r21, r21
    202a:	46 1b       	sub	r20, r22
    202c:	57 0b       	sbc	r21, r23
    202e:	48 8b       	std	Y+16, r20	; 0x10
    2030:	59 8b       	std	Y+17, r21	; 0x11
    2032:	5f ef       	ldi	r21, 0xFF	; 255
    2034:	25 16       	cp	r2, r21
    2036:	35 06       	cpc	r3, r21
    2038:	49 f4       	brne	.+18     	; 0x204c <vfprintf+0x2dc>
    203a:	b6 01       	movw	r22, r12
    203c:	8e e2       	ldi	r24, 0x2E	; 46
    203e:	90 e0       	ldi	r25, 0x00	; 0
    2040:	2a 8b       	std	Y+18, r18	; 0x12
    2042:	3b 8b       	std	Y+19, r19	; 0x13
    2044:	0e 94 53 13 	call	0x26a6	; 0x26a6 <fputc>
    2048:	3b 89       	ldd	r19, Y+19	; 0x13
    204a:	2a 89       	ldd	r18, Y+18	; 0x12
    204c:	42 14       	cp	r4, r2
    204e:	53 04       	cpc	r5, r3
    2050:	6c f0       	brlt	.+26     	; 0x206c <vfprintf+0x2fc>
    2052:	4c 85       	ldd	r20, Y+12	; 0x0c
    2054:	5d 85       	ldd	r21, Y+13	; 0x0d
    2056:	42 15       	cp	r20, r2
    2058:	53 05       	cpc	r21, r3
    205a:	44 f4       	brge	.+16     	; 0x206c <vfprintf+0x2fc>
    205c:	ee 85       	ldd	r30, Y+14	; 0x0e
    205e:	ff 85       	ldd	r31, Y+15	; 0x0f
    2060:	e2 0f       	add	r30, r18
    2062:	f3 1f       	adc	r31, r19
    2064:	e6 0d       	add	r30, r6
    2066:	f7 1d       	adc	r31, r7
    2068:	81 81       	ldd	r24, Z+1	; 0x01
    206a:	01 c0       	rjmp	.+2      	; 0x206e <vfprintf+0x2fe>
    206c:	80 e3       	ldi	r24, 0x30	; 48
    206e:	51 e0       	ldi	r21, 0x01	; 1
    2070:	25 1a       	sub	r2, r21
    2072:	31 08       	sbc	r3, r1
    2074:	2f 5f       	subi	r18, 0xFF	; 255
    2076:	3f 4f       	sbci	r19, 0xFF	; 255
    2078:	48 89       	ldd	r20, Y+16	; 0x10
    207a:	59 89       	ldd	r21, Y+17	; 0x11
    207c:	24 16       	cp	r2, r20
    207e:	35 06       	cpc	r3, r21
    2080:	4c f0       	brlt	.+18     	; 0x2094 <vfprintf+0x324>
    2082:	b6 01       	movw	r22, r12
    2084:	90 e0       	ldi	r25, 0x00	; 0
    2086:	2a 8b       	std	Y+18, r18	; 0x12
    2088:	3b 8b       	std	Y+19, r19	; 0x13
    208a:	0e 94 53 13 	call	0x26a6	; 0x26a6 <fputc>
    208e:	2a 89       	ldd	r18, Y+18	; 0x12
    2090:	3b 89       	ldd	r19, Y+19	; 0x13
    2092:	cf cf       	rjmp	.-98     	; 0x2032 <vfprintf+0x2c2>
    2094:	24 14       	cp	r2, r4
    2096:	35 04       	cpc	r3, r5
    2098:	39 f4       	brne	.+14     	; 0x20a8 <vfprintf+0x338>
    209a:	9a 81       	ldd	r25, Y+2	; 0x02
    209c:	96 33       	cpi	r25, 0x36	; 54
    209e:	18 f4       	brcc	.+6      	; 0x20a6 <vfprintf+0x336>
    20a0:	95 33       	cpi	r25, 0x35	; 53
    20a2:	11 f4       	brne	.+4      	; 0x20a8 <vfprintf+0x338>
    20a4:	04 ff       	sbrs	r16, 4
    20a6:	81 e3       	ldi	r24, 0x31	; 49
    20a8:	b6 01       	movw	r22, r12
    20aa:	90 e0       	ldi	r25, 0x00	; 0
    20ac:	4b c0       	rjmp	.+150    	; 0x2144 <vfprintf+0x3d4>
    20ae:	8a 81       	ldd	r24, Y+2	; 0x02
    20b0:	81 33       	cpi	r24, 0x31	; 49
    20b2:	09 f0       	breq	.+2      	; 0x20b6 <vfprintf+0x346>
    20b4:	0f 7e       	andi	r16, 0xEF	; 239
    20b6:	b6 01       	movw	r22, r12
    20b8:	90 e0       	ldi	r25, 0x00	; 0
    20ba:	0e 94 53 13 	call	0x26a6	; 0x26a6 <fputc>
    20be:	11 11       	cpse	r17, r1
    20c0:	05 c0       	rjmp	.+10     	; 0x20cc <vfprintf+0x35c>
    20c2:	34 fc       	sbrc	r3, 4
    20c4:	18 c0       	rjmp	.+48     	; 0x20f6 <vfprintf+0x386>
    20c6:	85 e6       	ldi	r24, 0x65	; 101
    20c8:	90 e0       	ldi	r25, 0x00	; 0
    20ca:	17 c0       	rjmp	.+46     	; 0x20fa <vfprintf+0x38a>
    20cc:	b6 01       	movw	r22, r12
    20ce:	8e e2       	ldi	r24, 0x2E	; 46
    20d0:	90 e0       	ldi	r25, 0x00	; 0
    20d2:	0e 94 53 13 	call	0x26a6	; 0x26a6 <fputc>
    20d6:	82 e0       	ldi	r24, 0x02	; 2
    20d8:	ee 24       	eor	r14, r14
    20da:	e3 94       	inc	r14
    20dc:	e8 0e       	add	r14, r24
    20de:	f3 01       	movw	r30, r6
    20e0:	e8 0f       	add	r30, r24
    20e2:	f1 1d       	adc	r31, r1
    20e4:	80 81       	ld	r24, Z
    20e6:	b6 01       	movw	r22, r12
    20e8:	90 e0       	ldi	r25, 0x00	; 0
    20ea:	0e 94 53 13 	call	0x26a6	; 0x26a6 <fputc>
    20ee:	11 50       	subi	r17, 0x01	; 1
    20f0:	8e 2d       	mov	r24, r14
    20f2:	91 f7       	brne	.-28     	; 0x20d8 <vfprintf+0x368>
    20f4:	e6 cf       	rjmp	.-52     	; 0x20c2 <vfprintf+0x352>
    20f6:	85 e4       	ldi	r24, 0x45	; 69
    20f8:	90 e0       	ldi	r25, 0x00	; 0
    20fa:	b6 01       	movw	r22, r12
    20fc:	0e 94 53 13 	call	0x26a6	; 0x26a6 <fputc>
    2100:	57 fc       	sbrc	r5, 7
    2102:	05 c0       	rjmp	.+10     	; 0x210e <vfprintf+0x39e>
    2104:	41 14       	cp	r4, r1
    2106:	51 04       	cpc	r5, r1
    2108:	39 f4       	brne	.+14     	; 0x2118 <vfprintf+0x3a8>
    210a:	04 ff       	sbrs	r16, 4
    210c:	05 c0       	rjmp	.+10     	; 0x2118 <vfprintf+0x3a8>
    210e:	51 94       	neg	r5
    2110:	41 94       	neg	r4
    2112:	51 08       	sbc	r5, r1
    2114:	8d e2       	ldi	r24, 0x2D	; 45
    2116:	01 c0       	rjmp	.+2      	; 0x211a <vfprintf+0x3aa>
    2118:	8b e2       	ldi	r24, 0x2B	; 43
    211a:	b6 01       	movw	r22, r12
    211c:	90 e0       	ldi	r25, 0x00	; 0
    211e:	0e 94 53 13 	call	0x26a6	; 0x26a6 <fputc>
    2122:	80 e3       	ldi	r24, 0x30	; 48
    2124:	9a e0       	ldi	r25, 0x0A	; 10
    2126:	49 16       	cp	r4, r25
    2128:	51 04       	cpc	r5, r1
    212a:	2c f0       	brlt	.+10     	; 0x2136 <vfprintf+0x3c6>
    212c:	8f 5f       	subi	r24, 0xFF	; 255
    212e:	5a e0       	ldi	r21, 0x0A	; 10
    2130:	45 1a       	sub	r4, r21
    2132:	51 08       	sbc	r5, r1
    2134:	f7 cf       	rjmp	.-18     	; 0x2124 <vfprintf+0x3b4>
    2136:	b6 01       	movw	r22, r12
    2138:	90 e0       	ldi	r25, 0x00	; 0
    213a:	0e 94 53 13 	call	0x26a6	; 0x26a6 <fputc>
    213e:	b6 01       	movw	r22, r12
    2140:	c2 01       	movw	r24, r4
    2142:	c0 96       	adiw	r24, 0x30	; 48
    2144:	0e 94 53 13 	call	0x26a6	; 0x26a6 <fputc>
    2148:	57 c1       	rjmp	.+686    	; 0x23f8 <vfprintf+0x688>
    214a:	83 36       	cpi	r24, 0x63	; 99
    214c:	31 f0       	breq	.+12     	; 0x215a <vfprintf+0x3ea>
    214e:	83 37       	cpi	r24, 0x73	; 115
    2150:	79 f0       	breq	.+30     	; 0x2170 <vfprintf+0x400>
    2152:	83 35       	cpi	r24, 0x53	; 83
    2154:	09 f0       	breq	.+2      	; 0x2158 <vfprintf+0x3e8>
    2156:	58 c0       	rjmp	.+176    	; 0x2208 <vfprintf+0x498>
    2158:	21 c0       	rjmp	.+66     	; 0x219c <vfprintf+0x42c>
    215a:	52 01       	movw	r10, r4
    215c:	e2 e0       	ldi	r30, 0x02	; 2
    215e:	ae 0e       	add	r10, r30
    2160:	b1 1c       	adc	r11, r1
    2162:	f2 01       	movw	r30, r4
    2164:	80 81       	ld	r24, Z
    2166:	89 83       	std	Y+1, r24	; 0x01
    2168:	01 e0       	ldi	r16, 0x01	; 1
    216a:	10 e0       	ldi	r17, 0x00	; 0
    216c:	23 01       	movw	r4, r6
    216e:	14 c0       	rjmp	.+40     	; 0x2198 <vfprintf+0x428>
    2170:	52 01       	movw	r10, r4
    2172:	f2 e0       	ldi	r31, 0x02	; 2
    2174:	af 0e       	add	r10, r31
    2176:	b1 1c       	adc	r11, r1
    2178:	f2 01       	movw	r30, r4
    217a:	40 80       	ld	r4, Z
    217c:	51 80       	ldd	r5, Z+1	; 0x01
    217e:	26 ff       	sbrs	r18, 6
    2180:	03 c0       	rjmp	.+6      	; 0x2188 <vfprintf+0x418>
    2182:	61 2f       	mov	r22, r17
    2184:	70 e0       	ldi	r23, 0x00	; 0
    2186:	02 c0       	rjmp	.+4      	; 0x218c <vfprintf+0x41c>
    2188:	6f ef       	ldi	r22, 0xFF	; 255
    218a:	7f ef       	ldi	r23, 0xFF	; 255
    218c:	c2 01       	movw	r24, r4
    218e:	2a 8b       	std	Y+18, r18	; 0x12
    2190:	0e 94 48 13 	call	0x2690	; 0x2690 <strnlen>
    2194:	8c 01       	movw	r16, r24
    2196:	2a 89       	ldd	r18, Y+18	; 0x12
    2198:	2f 77       	andi	r18, 0x7F	; 127
    219a:	15 c0       	rjmp	.+42     	; 0x21c6 <vfprintf+0x456>
    219c:	52 01       	movw	r10, r4
    219e:	f2 e0       	ldi	r31, 0x02	; 2
    21a0:	af 0e       	add	r10, r31
    21a2:	b1 1c       	adc	r11, r1
    21a4:	f2 01       	movw	r30, r4
    21a6:	40 80       	ld	r4, Z
    21a8:	51 80       	ldd	r5, Z+1	; 0x01
    21aa:	26 ff       	sbrs	r18, 6
    21ac:	03 c0       	rjmp	.+6      	; 0x21b4 <vfprintf+0x444>
    21ae:	61 2f       	mov	r22, r17
    21b0:	70 e0       	ldi	r23, 0x00	; 0
    21b2:	02 c0       	rjmp	.+4      	; 0x21b8 <vfprintf+0x448>
    21b4:	6f ef       	ldi	r22, 0xFF	; 255
    21b6:	7f ef       	ldi	r23, 0xFF	; 255
    21b8:	c2 01       	movw	r24, r4
    21ba:	2a 8b       	std	Y+18, r18	; 0x12
    21bc:	0e 94 3d 13 	call	0x267a	; 0x267a <strnlen_P>
    21c0:	8c 01       	movw	r16, r24
    21c2:	2a 89       	ldd	r18, Y+18	; 0x12
    21c4:	20 68       	ori	r18, 0x80	; 128
    21c6:	32 2e       	mov	r3, r18
    21c8:	23 fd       	sbrc	r18, 3
    21ca:	1a c0       	rjmp	.+52     	; 0x2200 <vfprintf+0x490>
    21cc:	8f 2d       	mov	r24, r15
    21ce:	90 e0       	ldi	r25, 0x00	; 0
    21d0:	08 17       	cp	r16, r24
    21d2:	19 07       	cpc	r17, r25
    21d4:	a8 f4       	brcc	.+42     	; 0x2200 <vfprintf+0x490>
    21d6:	b6 01       	movw	r22, r12
    21d8:	80 e2       	ldi	r24, 0x20	; 32
    21da:	90 e0       	ldi	r25, 0x00	; 0
    21dc:	0e 94 53 13 	call	0x26a6	; 0x26a6 <fputc>
    21e0:	fa 94       	dec	r15
    21e2:	f4 cf       	rjmp	.-24     	; 0x21cc <vfprintf+0x45c>
    21e4:	f2 01       	movw	r30, r4
    21e6:	37 fc       	sbrc	r3, 7
    21e8:	85 91       	lpm	r24, Z+
    21ea:	37 fe       	sbrs	r3, 7
    21ec:	81 91       	ld	r24, Z+
    21ee:	2f 01       	movw	r4, r30
    21f0:	b6 01       	movw	r22, r12
    21f2:	90 e0       	ldi	r25, 0x00	; 0
    21f4:	0e 94 53 13 	call	0x26a6	; 0x26a6 <fputc>
    21f8:	f1 10       	cpse	r15, r1
    21fa:	fa 94       	dec	r15
    21fc:	01 50       	subi	r16, 0x01	; 1
    21fe:	11 09       	sbc	r17, r1
    2200:	01 15       	cp	r16, r1
    2202:	11 05       	cpc	r17, r1
    2204:	79 f7       	brne	.-34     	; 0x21e4 <vfprintf+0x474>
    2206:	f8 c0       	rjmp	.+496    	; 0x23f8 <vfprintf+0x688>
    2208:	84 36       	cpi	r24, 0x64	; 100
    220a:	11 f0       	breq	.+4      	; 0x2210 <vfprintf+0x4a0>
    220c:	89 36       	cpi	r24, 0x69	; 105
    220e:	59 f5       	brne	.+86     	; 0x2266 <vfprintf+0x4f6>
    2210:	52 01       	movw	r10, r4
    2212:	27 ff       	sbrs	r18, 7
    2214:	09 c0       	rjmp	.+18     	; 0x2228 <vfprintf+0x4b8>
    2216:	f4 e0       	ldi	r31, 0x04	; 4
    2218:	af 0e       	add	r10, r31
    221a:	b1 1c       	adc	r11, r1
    221c:	f2 01       	movw	r30, r4
    221e:	60 81       	ld	r22, Z
    2220:	71 81       	ldd	r23, Z+1	; 0x01
    2222:	82 81       	ldd	r24, Z+2	; 0x02
    2224:	93 81       	ldd	r25, Z+3	; 0x03
    2226:	0a c0       	rjmp	.+20     	; 0x223c <vfprintf+0x4cc>
    2228:	f2 e0       	ldi	r31, 0x02	; 2
    222a:	af 0e       	add	r10, r31
    222c:	b1 1c       	adc	r11, r1
    222e:	f2 01       	movw	r30, r4
    2230:	60 81       	ld	r22, Z
    2232:	71 81       	ldd	r23, Z+1	; 0x01
    2234:	07 2e       	mov	r0, r23
    2236:	00 0c       	add	r0, r0
    2238:	88 0b       	sbc	r24, r24
    223a:	99 0b       	sbc	r25, r25
    223c:	2f 76       	andi	r18, 0x6F	; 111
    223e:	32 2e       	mov	r3, r18
    2240:	97 ff       	sbrs	r25, 7
    2242:	09 c0       	rjmp	.+18     	; 0x2256 <vfprintf+0x4e6>
    2244:	90 95       	com	r25
    2246:	80 95       	com	r24
    2248:	70 95       	com	r23
    224a:	61 95       	neg	r22
    224c:	7f 4f       	sbci	r23, 0xFF	; 255
    224e:	8f 4f       	sbci	r24, 0xFF	; 255
    2250:	9f 4f       	sbci	r25, 0xFF	; 255
    2252:	20 68       	ori	r18, 0x80	; 128
    2254:	32 2e       	mov	r3, r18
    2256:	2a e0       	ldi	r18, 0x0A	; 10
    2258:	30 e0       	ldi	r19, 0x00	; 0
    225a:	a3 01       	movw	r20, r6
    225c:	0e 94 8b 13 	call	0x2716	; 0x2716 <__ultoa_invert>
    2260:	e8 2e       	mov	r14, r24
    2262:	e6 18       	sub	r14, r6
    2264:	3f c0       	rjmp	.+126    	; 0x22e4 <vfprintf+0x574>
    2266:	02 2f       	mov	r16, r18
    2268:	85 37       	cpi	r24, 0x75	; 117
    226a:	21 f4       	brne	.+8      	; 0x2274 <vfprintf+0x504>
    226c:	0f 7e       	andi	r16, 0xEF	; 239
    226e:	2a e0       	ldi	r18, 0x0A	; 10
    2270:	30 e0       	ldi	r19, 0x00	; 0
    2272:	1d c0       	rjmp	.+58     	; 0x22ae <vfprintf+0x53e>
    2274:	09 7f       	andi	r16, 0xF9	; 249
    2276:	8f 36       	cpi	r24, 0x6F	; 111
    2278:	91 f0       	breq	.+36     	; 0x229e <vfprintf+0x52e>
    227a:	18 f4       	brcc	.+6      	; 0x2282 <vfprintf+0x512>
    227c:	88 35       	cpi	r24, 0x58	; 88
    227e:	59 f0       	breq	.+22     	; 0x2296 <vfprintf+0x526>
    2280:	c5 c0       	rjmp	.+394    	; 0x240c <vfprintf+0x69c>
    2282:	80 37       	cpi	r24, 0x70	; 112
    2284:	19 f0       	breq	.+6      	; 0x228c <vfprintf+0x51c>
    2286:	88 37       	cpi	r24, 0x78	; 120
    2288:	11 f0       	breq	.+4      	; 0x228e <vfprintf+0x51e>
    228a:	c0 c0       	rjmp	.+384    	; 0x240c <vfprintf+0x69c>
    228c:	00 61       	ori	r16, 0x10	; 16
    228e:	04 ff       	sbrs	r16, 4
    2290:	09 c0       	rjmp	.+18     	; 0x22a4 <vfprintf+0x534>
    2292:	04 60       	ori	r16, 0x04	; 4
    2294:	07 c0       	rjmp	.+14     	; 0x22a4 <vfprintf+0x534>
    2296:	24 ff       	sbrs	r18, 4
    2298:	08 c0       	rjmp	.+16     	; 0x22aa <vfprintf+0x53a>
    229a:	06 60       	ori	r16, 0x06	; 6
    229c:	06 c0       	rjmp	.+12     	; 0x22aa <vfprintf+0x53a>
    229e:	28 e0       	ldi	r18, 0x08	; 8
    22a0:	30 e0       	ldi	r19, 0x00	; 0
    22a2:	05 c0       	rjmp	.+10     	; 0x22ae <vfprintf+0x53e>
    22a4:	20 e1       	ldi	r18, 0x10	; 16
    22a6:	30 e0       	ldi	r19, 0x00	; 0
    22a8:	02 c0       	rjmp	.+4      	; 0x22ae <vfprintf+0x53e>
    22aa:	20 e1       	ldi	r18, 0x10	; 16
    22ac:	32 e0       	ldi	r19, 0x02	; 2
    22ae:	52 01       	movw	r10, r4
    22b0:	07 ff       	sbrs	r16, 7
    22b2:	09 c0       	rjmp	.+18     	; 0x22c6 <vfprintf+0x556>
    22b4:	f4 e0       	ldi	r31, 0x04	; 4
    22b6:	af 0e       	add	r10, r31
    22b8:	b1 1c       	adc	r11, r1
    22ba:	f2 01       	movw	r30, r4
    22bc:	60 81       	ld	r22, Z
    22be:	71 81       	ldd	r23, Z+1	; 0x01
    22c0:	82 81       	ldd	r24, Z+2	; 0x02
    22c2:	93 81       	ldd	r25, Z+3	; 0x03
    22c4:	08 c0       	rjmp	.+16     	; 0x22d6 <vfprintf+0x566>
    22c6:	f2 e0       	ldi	r31, 0x02	; 2
    22c8:	af 0e       	add	r10, r31
    22ca:	b1 1c       	adc	r11, r1
    22cc:	f2 01       	movw	r30, r4
    22ce:	60 81       	ld	r22, Z
    22d0:	71 81       	ldd	r23, Z+1	; 0x01
    22d2:	80 e0       	ldi	r24, 0x00	; 0
    22d4:	90 e0       	ldi	r25, 0x00	; 0
    22d6:	a3 01       	movw	r20, r6
    22d8:	0e 94 8b 13 	call	0x2716	; 0x2716 <__ultoa_invert>
    22dc:	e8 2e       	mov	r14, r24
    22de:	e6 18       	sub	r14, r6
    22e0:	0f 77       	andi	r16, 0x7F	; 127
    22e2:	30 2e       	mov	r3, r16
    22e4:	36 fe       	sbrs	r3, 6
    22e6:	0b c0       	rjmp	.+22     	; 0x22fe <vfprintf+0x58e>
    22e8:	33 2d       	mov	r19, r3
    22ea:	3e 7f       	andi	r19, 0xFE	; 254
    22ec:	e1 16       	cp	r14, r17
    22ee:	50 f4       	brcc	.+20     	; 0x2304 <vfprintf+0x594>
    22f0:	34 fe       	sbrs	r3, 4
    22f2:	0a c0       	rjmp	.+20     	; 0x2308 <vfprintf+0x598>
    22f4:	32 fc       	sbrc	r3, 2
    22f6:	08 c0       	rjmp	.+16     	; 0x2308 <vfprintf+0x598>
    22f8:	33 2d       	mov	r19, r3
    22fa:	3e 7e       	andi	r19, 0xEE	; 238
    22fc:	05 c0       	rjmp	.+10     	; 0x2308 <vfprintf+0x598>
    22fe:	0e 2d       	mov	r16, r14
    2300:	33 2d       	mov	r19, r3
    2302:	03 c0       	rjmp	.+6      	; 0x230a <vfprintf+0x59a>
    2304:	0e 2d       	mov	r16, r14
    2306:	01 c0       	rjmp	.+2      	; 0x230a <vfprintf+0x59a>
    2308:	01 2f       	mov	r16, r17
    230a:	34 ff       	sbrs	r19, 4
    230c:	0c c0       	rjmp	.+24     	; 0x2326 <vfprintf+0x5b6>
    230e:	fe 01       	movw	r30, r28
    2310:	ee 0d       	add	r30, r14
    2312:	f1 1d       	adc	r31, r1
    2314:	80 81       	ld	r24, Z
    2316:	80 33       	cpi	r24, 0x30	; 48
    2318:	11 f4       	brne	.+4      	; 0x231e <vfprintf+0x5ae>
    231a:	39 7e       	andi	r19, 0xE9	; 233
    231c:	08 c0       	rjmp	.+16     	; 0x232e <vfprintf+0x5be>
    231e:	32 ff       	sbrs	r19, 2
    2320:	05 c0       	rjmp	.+10     	; 0x232c <vfprintf+0x5bc>
    2322:	0e 5f       	subi	r16, 0xFE	; 254
    2324:	04 c0       	rjmp	.+8      	; 0x232e <vfprintf+0x5be>
    2326:	83 2f       	mov	r24, r19
    2328:	86 78       	andi	r24, 0x86	; 134
    232a:	09 f0       	breq	.+2      	; 0x232e <vfprintf+0x5be>
    232c:	0f 5f       	subi	r16, 0xFF	; 255
    232e:	33 fd       	sbrc	r19, 3
    2330:	13 c0       	rjmp	.+38     	; 0x2358 <vfprintf+0x5e8>
    2332:	30 ff       	sbrs	r19, 0
    2334:	06 c0       	rjmp	.+12     	; 0x2342 <vfprintf+0x5d2>
    2336:	1e 2d       	mov	r17, r14
    2338:	0f 15       	cp	r16, r15
    233a:	18 f4       	brcc	.+6      	; 0x2342 <vfprintf+0x5d2>
    233c:	1f 0d       	add	r17, r15
    233e:	10 1b       	sub	r17, r16
    2340:	0f 2d       	mov	r16, r15
    2342:	0f 15       	cp	r16, r15
    2344:	68 f4       	brcc	.+26     	; 0x2360 <vfprintf+0x5f0>
    2346:	b6 01       	movw	r22, r12
    2348:	80 e2       	ldi	r24, 0x20	; 32
    234a:	90 e0       	ldi	r25, 0x00	; 0
    234c:	3b 8b       	std	Y+19, r19	; 0x13
    234e:	0e 94 53 13 	call	0x26a6	; 0x26a6 <fputc>
    2352:	0f 5f       	subi	r16, 0xFF	; 255
    2354:	3b 89       	ldd	r19, Y+19	; 0x13
    2356:	f5 cf       	rjmp	.-22     	; 0x2342 <vfprintf+0x5d2>
    2358:	0f 15       	cp	r16, r15
    235a:	10 f4       	brcc	.+4      	; 0x2360 <vfprintf+0x5f0>
    235c:	f0 1a       	sub	r15, r16
    235e:	01 c0       	rjmp	.+2      	; 0x2362 <vfprintf+0x5f2>
    2360:	f1 2c       	mov	r15, r1
    2362:	34 ff       	sbrs	r19, 4
    2364:	12 c0       	rjmp	.+36     	; 0x238a <vfprintf+0x61a>
    2366:	b6 01       	movw	r22, r12
    2368:	80 e3       	ldi	r24, 0x30	; 48
    236a:	90 e0       	ldi	r25, 0x00	; 0
    236c:	3b 8b       	std	Y+19, r19	; 0x13
    236e:	0e 94 53 13 	call	0x26a6	; 0x26a6 <fputc>
    2372:	3b 89       	ldd	r19, Y+19	; 0x13
    2374:	32 ff       	sbrs	r19, 2
    2376:	17 c0       	rjmp	.+46     	; 0x23a6 <vfprintf+0x636>
    2378:	31 fd       	sbrc	r19, 1
    237a:	03 c0       	rjmp	.+6      	; 0x2382 <vfprintf+0x612>
    237c:	88 e7       	ldi	r24, 0x78	; 120
    237e:	90 e0       	ldi	r25, 0x00	; 0
    2380:	02 c0       	rjmp	.+4      	; 0x2386 <vfprintf+0x616>
    2382:	88 e5       	ldi	r24, 0x58	; 88
    2384:	90 e0       	ldi	r25, 0x00	; 0
    2386:	b6 01       	movw	r22, r12
    2388:	0c c0       	rjmp	.+24     	; 0x23a2 <vfprintf+0x632>
    238a:	83 2f       	mov	r24, r19
    238c:	86 78       	andi	r24, 0x86	; 134
    238e:	59 f0       	breq	.+22     	; 0x23a6 <vfprintf+0x636>
    2390:	31 ff       	sbrs	r19, 1
    2392:	02 c0       	rjmp	.+4      	; 0x2398 <vfprintf+0x628>
    2394:	8b e2       	ldi	r24, 0x2B	; 43
    2396:	01 c0       	rjmp	.+2      	; 0x239a <vfprintf+0x62a>
    2398:	80 e2       	ldi	r24, 0x20	; 32
    239a:	37 fd       	sbrc	r19, 7
    239c:	8d e2       	ldi	r24, 0x2D	; 45
    239e:	b6 01       	movw	r22, r12
    23a0:	90 e0       	ldi	r25, 0x00	; 0
    23a2:	0e 94 53 13 	call	0x26a6	; 0x26a6 <fputc>
    23a6:	e1 16       	cp	r14, r17
    23a8:	38 f4       	brcc	.+14     	; 0x23b8 <vfprintf+0x648>
    23aa:	b6 01       	movw	r22, r12
    23ac:	80 e3       	ldi	r24, 0x30	; 48
    23ae:	90 e0       	ldi	r25, 0x00	; 0
    23b0:	0e 94 53 13 	call	0x26a6	; 0x26a6 <fputc>
    23b4:	11 50       	subi	r17, 0x01	; 1
    23b6:	f7 cf       	rjmp	.-18     	; 0x23a6 <vfprintf+0x636>
    23b8:	ea 94       	dec	r14
    23ba:	f3 01       	movw	r30, r6
    23bc:	ee 0d       	add	r30, r14
    23be:	f1 1d       	adc	r31, r1
    23c0:	80 81       	ld	r24, Z
    23c2:	b6 01       	movw	r22, r12
    23c4:	90 e0       	ldi	r25, 0x00	; 0
    23c6:	0e 94 53 13 	call	0x26a6	; 0x26a6 <fputc>
    23ca:	e1 10       	cpse	r14, r1
    23cc:	f5 cf       	rjmp	.-22     	; 0x23b8 <vfprintf+0x648>
    23ce:	14 c0       	rjmp	.+40     	; 0x23f8 <vfprintf+0x688>
    23d0:	f4 e0       	ldi	r31, 0x04	; 4
    23d2:	ff 15       	cp	r31, r15
    23d4:	58 f5       	brcc	.+86     	; 0x242c <vfprintf+0x6bc>
    23d6:	84 e0       	ldi	r24, 0x04	; 4
    23d8:	f8 1a       	sub	r15, r24
    23da:	33 fe       	sbrs	r3, 3
    23dc:	1e c0       	rjmp	.+60     	; 0x241a <vfprintf+0x6aa>
    23de:	21 10       	cpse	r2, r1
    23e0:	26 c0       	rjmp	.+76     	; 0x242e <vfprintf+0x6be>
    23e2:	03 ff       	sbrs	r16, 3
    23e4:	2a c0       	rjmp	.+84     	; 0x243a <vfprintf+0x6ca>
    23e6:	0c ea       	ldi	r16, 0xAC	; 172
    23e8:	10 e0       	ldi	r17, 0x00	; 0
    23ea:	f3 2d       	mov	r31, r3
    23ec:	f0 71       	andi	r31, 0x10	; 16
    23ee:	3f 2e       	mov	r3, r31
    23f0:	f8 01       	movw	r30, r16
    23f2:	84 91       	lpm	r24, Z
    23f4:	81 11       	cpse	r24, r1
    23f6:	24 c0       	rjmp	.+72     	; 0x2440 <vfprintf+0x6d0>
    23f8:	ff 20       	and	r15, r15
    23fa:	09 f4       	brne	.+2      	; 0x23fe <vfprintf+0x68e>
    23fc:	e5 cc       	rjmp	.-1590   	; 0x1dc8 <vfprintf+0x58>
    23fe:	b6 01       	movw	r22, r12
    2400:	80 e2       	ldi	r24, 0x20	; 32
    2402:	90 e0       	ldi	r25, 0x00	; 0
    2404:	0e 94 53 13 	call	0x26a6	; 0x26a6 <fputc>
    2408:	fa 94       	dec	r15
    240a:	f6 cf       	rjmp	.-20     	; 0x23f8 <vfprintf+0x688>
    240c:	f6 01       	movw	r30, r12
    240e:	86 81       	ldd	r24, Z+6	; 0x06
    2410:	97 81       	ldd	r25, Z+7	; 0x07
    2412:	26 c0       	rjmp	.+76     	; 0x2460 <vfprintf+0x6f0>
    2414:	8f ef       	ldi	r24, 0xFF	; 255
    2416:	9f ef       	ldi	r25, 0xFF	; 255
    2418:	23 c0       	rjmp	.+70     	; 0x2460 <vfprintf+0x6f0>
    241a:	b6 01       	movw	r22, r12
    241c:	80 e2       	ldi	r24, 0x20	; 32
    241e:	90 e0       	ldi	r25, 0x00	; 0
    2420:	0e 94 53 13 	call	0x26a6	; 0x26a6 <fputc>
    2424:	fa 94       	dec	r15
    2426:	f1 10       	cpse	r15, r1
    2428:	f8 cf       	rjmp	.-16     	; 0x241a <vfprintf+0x6aa>
    242a:	d9 cf       	rjmp	.-78     	; 0x23de <vfprintf+0x66e>
    242c:	f1 2c       	mov	r15, r1
    242e:	b6 01       	movw	r22, r12
    2430:	82 2d       	mov	r24, r2
    2432:	90 e0       	ldi	r25, 0x00	; 0
    2434:	0e 94 53 13 	call	0x26a6	; 0x26a6 <fputc>
    2438:	d4 cf       	rjmp	.-88     	; 0x23e2 <vfprintf+0x672>
    243a:	00 eb       	ldi	r16, 0xB0	; 176
    243c:	10 e0       	ldi	r17, 0x00	; 0
    243e:	d5 cf       	rjmp	.-86     	; 0x23ea <vfprintf+0x67a>
    2440:	31 10       	cpse	r3, r1
    2442:	80 52       	subi	r24, 0x20	; 32
    2444:	b6 01       	movw	r22, r12
    2446:	90 e0       	ldi	r25, 0x00	; 0
    2448:	0e 94 53 13 	call	0x26a6	; 0x26a6 <fputc>
    244c:	0f 5f       	subi	r16, 0xFF	; 255
    244e:	1f 4f       	sbci	r17, 0xFF	; 255
    2450:	cf cf       	rjmp	.-98     	; 0x23f0 <vfprintf+0x680>
    2452:	23 e0       	ldi	r18, 0x03	; 3
    2454:	2f 15       	cp	r18, r15
    2456:	10 f4       	brcc	.+4      	; 0x245c <vfprintf+0x6ec>
    2458:	83 e0       	ldi	r24, 0x03	; 3
    245a:	be cf       	rjmp	.-132    	; 0x23d8 <vfprintf+0x668>
    245c:	f1 2c       	mov	r15, r1
    245e:	c1 cf       	rjmp	.-126    	; 0x23e2 <vfprintf+0x672>
    2460:	63 96       	adiw	r28, 0x13	; 19
    2462:	e2 e1       	ldi	r30, 0x12	; 18
    2464:	0c 94 4d 12 	jmp	0x249a	; 0x249a <__epilogue_restores__>

00002468 <__prologue_saves__>:
    2468:	2f 92       	push	r2
    246a:	3f 92       	push	r3
    246c:	4f 92       	push	r4
    246e:	5f 92       	push	r5
    2470:	6f 92       	push	r6
    2472:	7f 92       	push	r7
    2474:	8f 92       	push	r8
    2476:	9f 92       	push	r9
    2478:	af 92       	push	r10
    247a:	bf 92       	push	r11
    247c:	cf 92       	push	r12
    247e:	df 92       	push	r13
    2480:	ef 92       	push	r14
    2482:	ff 92       	push	r15
    2484:	0f 93       	push	r16
    2486:	1f 93       	push	r17
    2488:	cf 93       	push	r28
    248a:	df 93       	push	r29
    248c:	cd b7       	in	r28, 0x3d	; 61
    248e:	de b7       	in	r29, 0x3e	; 62
    2490:	ca 1b       	sub	r28, r26
    2492:	db 0b       	sbc	r29, r27
    2494:	cd bf       	out	0x3d, r28	; 61
    2496:	de bf       	out	0x3e, r29	; 62
    2498:	09 94       	ijmp

0000249a <__epilogue_restores__>:
    249a:	2a 88       	ldd	r2, Y+18	; 0x12
    249c:	39 88       	ldd	r3, Y+17	; 0x11
    249e:	48 88       	ldd	r4, Y+16	; 0x10
    24a0:	5f 84       	ldd	r5, Y+15	; 0x0f
    24a2:	6e 84       	ldd	r6, Y+14	; 0x0e
    24a4:	7d 84       	ldd	r7, Y+13	; 0x0d
    24a6:	8c 84       	ldd	r8, Y+12	; 0x0c
    24a8:	9b 84       	ldd	r9, Y+11	; 0x0b
    24aa:	aa 84       	ldd	r10, Y+10	; 0x0a
    24ac:	b9 84       	ldd	r11, Y+9	; 0x09
    24ae:	c8 84       	ldd	r12, Y+8	; 0x08
    24b0:	df 80       	ldd	r13, Y+7	; 0x07
    24b2:	ee 80       	ldd	r14, Y+6	; 0x06
    24b4:	fd 80       	ldd	r15, Y+5	; 0x05
    24b6:	0c 81       	ldd	r16, Y+4	; 0x04
    24b8:	1b 81       	ldd	r17, Y+3	; 0x03
    24ba:	aa 81       	ldd	r26, Y+2	; 0x02
    24bc:	b9 81       	ldd	r27, Y+1	; 0x01
    24be:	ce 0f       	add	r28, r30
    24c0:	d1 1d       	adc	r29, r1
    24c2:	cd bf       	out	0x3d, r28	; 61
    24c4:	de bf       	out	0x3e, r29	; 62
    24c6:	ed 01       	movw	r28, r26
    24c8:	08 95       	ret

000024ca <__ftoa_engine>:
    24ca:	28 30       	cpi	r18, 0x08	; 8
    24cc:	08 f0       	brcs	.+2      	; 0x24d0 <__ftoa_engine+0x6>
    24ce:	27 e0       	ldi	r18, 0x07	; 7
    24d0:	33 27       	eor	r19, r19
    24d2:	da 01       	movw	r26, r20
    24d4:	99 0f       	add	r25, r25
    24d6:	31 1d       	adc	r19, r1
    24d8:	87 fd       	sbrc	r24, 7
    24da:	91 60       	ori	r25, 0x01	; 1
    24dc:	00 96       	adiw	r24, 0x00	; 0
    24de:	61 05       	cpc	r22, r1
    24e0:	71 05       	cpc	r23, r1
    24e2:	39 f4       	brne	.+14     	; 0x24f2 <__ftoa_engine+0x28>
    24e4:	32 60       	ori	r19, 0x02	; 2
    24e6:	2e 5f       	subi	r18, 0xFE	; 254
    24e8:	3d 93       	st	X+, r19
    24ea:	30 e3       	ldi	r19, 0x30	; 48
    24ec:	2a 95       	dec	r18
    24ee:	e1 f7       	brne	.-8      	; 0x24e8 <__ftoa_engine+0x1e>
    24f0:	08 95       	ret
    24f2:	9f 3f       	cpi	r25, 0xFF	; 255
    24f4:	30 f0       	brcs	.+12     	; 0x2502 <__ftoa_engine+0x38>
    24f6:	80 38       	cpi	r24, 0x80	; 128
    24f8:	71 05       	cpc	r23, r1
    24fa:	61 05       	cpc	r22, r1
    24fc:	09 f0       	breq	.+2      	; 0x2500 <__ftoa_engine+0x36>
    24fe:	3c 5f       	subi	r19, 0xFC	; 252
    2500:	3c 5f       	subi	r19, 0xFC	; 252
    2502:	3d 93       	st	X+, r19
    2504:	91 30       	cpi	r25, 0x01	; 1
    2506:	08 f0       	brcs	.+2      	; 0x250a <__ftoa_engine+0x40>
    2508:	80 68       	ori	r24, 0x80	; 128
    250a:	91 1d       	adc	r25, r1
    250c:	df 93       	push	r29
    250e:	cf 93       	push	r28
    2510:	1f 93       	push	r17
    2512:	0f 93       	push	r16
    2514:	ff 92       	push	r15
    2516:	ef 92       	push	r14
    2518:	19 2f       	mov	r17, r25
    251a:	98 7f       	andi	r25, 0xF8	; 248
    251c:	96 95       	lsr	r25
    251e:	e9 2f       	mov	r30, r25
    2520:	96 95       	lsr	r25
    2522:	96 95       	lsr	r25
    2524:	e9 0f       	add	r30, r25
    2526:	ff 27       	eor	r31, r31
    2528:	e2 5f       	subi	r30, 0xF2	; 242
    252a:	fe 4f       	sbci	r31, 0xFE	; 254
    252c:	99 27       	eor	r25, r25
    252e:	33 27       	eor	r19, r19
    2530:	ee 24       	eor	r14, r14
    2532:	ff 24       	eor	r15, r15
    2534:	a7 01       	movw	r20, r14
    2536:	e7 01       	movw	r28, r14
    2538:	05 90       	lpm	r0, Z+
    253a:	08 94       	sec
    253c:	07 94       	ror	r0
    253e:	28 f4       	brcc	.+10     	; 0x254a <__ftoa_engine+0x80>
    2540:	36 0f       	add	r19, r22
    2542:	e7 1e       	adc	r14, r23
    2544:	f8 1e       	adc	r15, r24
    2546:	49 1f       	adc	r20, r25
    2548:	51 1d       	adc	r21, r1
    254a:	66 0f       	add	r22, r22
    254c:	77 1f       	adc	r23, r23
    254e:	88 1f       	adc	r24, r24
    2550:	99 1f       	adc	r25, r25
    2552:	06 94       	lsr	r0
    2554:	a1 f7       	brne	.-24     	; 0x253e <__ftoa_engine+0x74>
    2556:	05 90       	lpm	r0, Z+
    2558:	07 94       	ror	r0
    255a:	28 f4       	brcc	.+10     	; 0x2566 <__ftoa_engine+0x9c>
    255c:	e7 0e       	add	r14, r23
    255e:	f8 1e       	adc	r15, r24
    2560:	49 1f       	adc	r20, r25
    2562:	56 1f       	adc	r21, r22
    2564:	c1 1d       	adc	r28, r1
    2566:	77 0f       	add	r23, r23
    2568:	88 1f       	adc	r24, r24
    256a:	99 1f       	adc	r25, r25
    256c:	66 1f       	adc	r22, r22
    256e:	06 94       	lsr	r0
    2570:	a1 f7       	brne	.-24     	; 0x255a <__ftoa_engine+0x90>
    2572:	05 90       	lpm	r0, Z+
    2574:	07 94       	ror	r0
    2576:	28 f4       	brcc	.+10     	; 0x2582 <__ftoa_engine+0xb8>
    2578:	f8 0e       	add	r15, r24
    257a:	49 1f       	adc	r20, r25
    257c:	56 1f       	adc	r21, r22
    257e:	c7 1f       	adc	r28, r23
    2580:	d1 1d       	adc	r29, r1
    2582:	88 0f       	add	r24, r24
    2584:	99 1f       	adc	r25, r25
    2586:	66 1f       	adc	r22, r22
    2588:	77 1f       	adc	r23, r23
    258a:	06 94       	lsr	r0
    258c:	a1 f7       	brne	.-24     	; 0x2576 <__ftoa_engine+0xac>
    258e:	05 90       	lpm	r0, Z+
    2590:	07 94       	ror	r0
    2592:	20 f4       	brcc	.+8      	; 0x259c <__ftoa_engine+0xd2>
    2594:	49 0f       	add	r20, r25
    2596:	56 1f       	adc	r21, r22
    2598:	c7 1f       	adc	r28, r23
    259a:	d8 1f       	adc	r29, r24
    259c:	99 0f       	add	r25, r25
    259e:	66 1f       	adc	r22, r22
    25a0:	77 1f       	adc	r23, r23
    25a2:	88 1f       	adc	r24, r24
    25a4:	06 94       	lsr	r0
    25a6:	a9 f7       	brne	.-22     	; 0x2592 <__ftoa_engine+0xc8>
    25a8:	84 91       	lpm	r24, Z
    25aa:	10 95       	com	r17
    25ac:	17 70       	andi	r17, 0x07	; 7
    25ae:	41 f0       	breq	.+16     	; 0x25c0 <__ftoa_engine+0xf6>
    25b0:	d6 95       	lsr	r29
    25b2:	c7 95       	ror	r28
    25b4:	57 95       	ror	r21
    25b6:	47 95       	ror	r20
    25b8:	f7 94       	ror	r15
    25ba:	e7 94       	ror	r14
    25bc:	1a 95       	dec	r17
    25be:	c1 f7       	brne	.-16     	; 0x25b0 <__ftoa_engine+0xe6>
    25c0:	e4 eb       	ldi	r30, 0xB4	; 180
    25c2:	f0 e0       	ldi	r31, 0x00	; 0
    25c4:	68 94       	set
    25c6:	15 90       	lpm	r1, Z+
    25c8:	15 91       	lpm	r17, Z+
    25ca:	35 91       	lpm	r19, Z+
    25cc:	65 91       	lpm	r22, Z+
    25ce:	95 91       	lpm	r25, Z+
    25d0:	05 90       	lpm	r0, Z+
    25d2:	7f e2       	ldi	r23, 0x2F	; 47
    25d4:	73 95       	inc	r23
    25d6:	e1 18       	sub	r14, r1
    25d8:	f1 0a       	sbc	r15, r17
    25da:	43 0b       	sbc	r20, r19
    25dc:	56 0b       	sbc	r21, r22
    25de:	c9 0b       	sbc	r28, r25
    25e0:	d0 09       	sbc	r29, r0
    25e2:	c0 f7       	brcc	.-16     	; 0x25d4 <__ftoa_engine+0x10a>
    25e4:	e1 0c       	add	r14, r1
    25e6:	f1 1e       	adc	r15, r17
    25e8:	43 1f       	adc	r20, r19
    25ea:	56 1f       	adc	r21, r22
    25ec:	c9 1f       	adc	r28, r25
    25ee:	d0 1d       	adc	r29, r0
    25f0:	7e f4       	brtc	.+30     	; 0x2610 <__ftoa_engine+0x146>
    25f2:	70 33       	cpi	r23, 0x30	; 48
    25f4:	11 f4       	brne	.+4      	; 0x25fa <__ftoa_engine+0x130>
    25f6:	8a 95       	dec	r24
    25f8:	e6 cf       	rjmp	.-52     	; 0x25c6 <__ftoa_engine+0xfc>
    25fa:	e8 94       	clt
    25fc:	01 50       	subi	r16, 0x01	; 1
    25fe:	30 f0       	brcs	.+12     	; 0x260c <__ftoa_engine+0x142>
    2600:	08 0f       	add	r16, r24
    2602:	0a f4       	brpl	.+2      	; 0x2606 <__ftoa_engine+0x13c>
    2604:	00 27       	eor	r16, r16
    2606:	02 17       	cp	r16, r18
    2608:	08 f4       	brcc	.+2      	; 0x260c <__ftoa_engine+0x142>
    260a:	20 2f       	mov	r18, r16
    260c:	23 95       	inc	r18
    260e:	02 2f       	mov	r16, r18
    2610:	7a 33       	cpi	r23, 0x3A	; 58
    2612:	28 f0       	brcs	.+10     	; 0x261e <__ftoa_engine+0x154>
    2614:	79 e3       	ldi	r23, 0x39	; 57
    2616:	7d 93       	st	X+, r23
    2618:	2a 95       	dec	r18
    261a:	e9 f7       	brne	.-6      	; 0x2616 <__ftoa_engine+0x14c>
    261c:	10 c0       	rjmp	.+32     	; 0x263e <__ftoa_engine+0x174>
    261e:	7d 93       	st	X+, r23
    2620:	2a 95       	dec	r18
    2622:	89 f6       	brne	.-94     	; 0x25c6 <__ftoa_engine+0xfc>
    2624:	06 94       	lsr	r0
    2626:	97 95       	ror	r25
    2628:	67 95       	ror	r22
    262a:	37 95       	ror	r19
    262c:	17 95       	ror	r17
    262e:	17 94       	ror	r1
    2630:	e1 18       	sub	r14, r1
    2632:	f1 0a       	sbc	r15, r17
    2634:	43 0b       	sbc	r20, r19
    2636:	56 0b       	sbc	r21, r22
    2638:	c9 0b       	sbc	r28, r25
    263a:	d0 09       	sbc	r29, r0
    263c:	98 f0       	brcs	.+38     	; 0x2664 <__ftoa_engine+0x19a>
    263e:	23 95       	inc	r18
    2640:	7e 91       	ld	r23, -X
    2642:	73 95       	inc	r23
    2644:	7a 33       	cpi	r23, 0x3A	; 58
    2646:	08 f0       	brcs	.+2      	; 0x264a <__ftoa_engine+0x180>
    2648:	70 e3       	ldi	r23, 0x30	; 48
    264a:	7c 93       	st	X, r23
    264c:	20 13       	cpse	r18, r16
    264e:	b8 f7       	brcc	.-18     	; 0x263e <__ftoa_engine+0x174>
    2650:	7e 91       	ld	r23, -X
    2652:	70 61       	ori	r23, 0x10	; 16
    2654:	7d 93       	st	X+, r23
    2656:	30 f0       	brcs	.+12     	; 0x2664 <__ftoa_engine+0x19a>
    2658:	83 95       	inc	r24
    265a:	71 e3       	ldi	r23, 0x31	; 49
    265c:	7d 93       	st	X+, r23
    265e:	70 e3       	ldi	r23, 0x30	; 48
    2660:	2a 95       	dec	r18
    2662:	e1 f7       	brne	.-8      	; 0x265c <__ftoa_engine+0x192>
    2664:	11 24       	eor	r1, r1
    2666:	ef 90       	pop	r14
    2668:	ff 90       	pop	r15
    266a:	0f 91       	pop	r16
    266c:	1f 91       	pop	r17
    266e:	cf 91       	pop	r28
    2670:	df 91       	pop	r29
    2672:	99 27       	eor	r25, r25
    2674:	87 fd       	sbrc	r24, 7
    2676:	90 95       	com	r25
    2678:	08 95       	ret

0000267a <strnlen_P>:
    267a:	fc 01       	movw	r30, r24
    267c:	05 90       	lpm	r0, Z+
    267e:	61 50       	subi	r22, 0x01	; 1
    2680:	70 40       	sbci	r23, 0x00	; 0
    2682:	01 10       	cpse	r0, r1
    2684:	d8 f7       	brcc	.-10     	; 0x267c <strnlen_P+0x2>
    2686:	80 95       	com	r24
    2688:	90 95       	com	r25
    268a:	8e 0f       	add	r24, r30
    268c:	9f 1f       	adc	r25, r31
    268e:	08 95       	ret

00002690 <strnlen>:
    2690:	fc 01       	movw	r30, r24
    2692:	61 50       	subi	r22, 0x01	; 1
    2694:	70 40       	sbci	r23, 0x00	; 0
    2696:	01 90       	ld	r0, Z+
    2698:	01 10       	cpse	r0, r1
    269a:	d8 f7       	brcc	.-10     	; 0x2692 <strnlen+0x2>
    269c:	80 95       	com	r24
    269e:	90 95       	com	r25
    26a0:	8e 0f       	add	r24, r30
    26a2:	9f 1f       	adc	r25, r31
    26a4:	08 95       	ret

000026a6 <fputc>:
    26a6:	0f 93       	push	r16
    26a8:	1f 93       	push	r17
    26aa:	cf 93       	push	r28
    26ac:	df 93       	push	r29
    26ae:	fb 01       	movw	r30, r22
    26b0:	23 81       	ldd	r18, Z+3	; 0x03
    26b2:	21 fd       	sbrc	r18, 1
    26b4:	03 c0       	rjmp	.+6      	; 0x26bc <fputc+0x16>
    26b6:	8f ef       	ldi	r24, 0xFF	; 255
    26b8:	9f ef       	ldi	r25, 0xFF	; 255
    26ba:	28 c0       	rjmp	.+80     	; 0x270c <fputc+0x66>
    26bc:	22 ff       	sbrs	r18, 2
    26be:	16 c0       	rjmp	.+44     	; 0x26ec <fputc+0x46>
    26c0:	46 81       	ldd	r20, Z+6	; 0x06
    26c2:	57 81       	ldd	r21, Z+7	; 0x07
    26c4:	24 81       	ldd	r18, Z+4	; 0x04
    26c6:	35 81       	ldd	r19, Z+5	; 0x05
    26c8:	42 17       	cp	r20, r18
    26ca:	53 07       	cpc	r21, r19
    26cc:	44 f4       	brge	.+16     	; 0x26de <fputc+0x38>
    26ce:	a0 81       	ld	r26, Z
    26d0:	b1 81       	ldd	r27, Z+1	; 0x01
    26d2:	9d 01       	movw	r18, r26
    26d4:	2f 5f       	subi	r18, 0xFF	; 255
    26d6:	3f 4f       	sbci	r19, 0xFF	; 255
    26d8:	20 83       	st	Z, r18
    26da:	31 83       	std	Z+1, r19	; 0x01
    26dc:	8c 93       	st	X, r24
    26de:	26 81       	ldd	r18, Z+6	; 0x06
    26e0:	37 81       	ldd	r19, Z+7	; 0x07
    26e2:	2f 5f       	subi	r18, 0xFF	; 255
    26e4:	3f 4f       	sbci	r19, 0xFF	; 255
    26e6:	26 83       	std	Z+6, r18	; 0x06
    26e8:	37 83       	std	Z+7, r19	; 0x07
    26ea:	10 c0       	rjmp	.+32     	; 0x270c <fputc+0x66>
    26ec:	eb 01       	movw	r28, r22
    26ee:	09 2f       	mov	r16, r25
    26f0:	18 2f       	mov	r17, r24
    26f2:	00 84       	ldd	r0, Z+8	; 0x08
    26f4:	f1 85       	ldd	r31, Z+9	; 0x09
    26f6:	e0 2d       	mov	r30, r0
    26f8:	09 95       	icall
    26fa:	89 2b       	or	r24, r25
    26fc:	e1 f6       	brne	.-72     	; 0x26b6 <fputc+0x10>
    26fe:	8e 81       	ldd	r24, Y+6	; 0x06
    2700:	9f 81       	ldd	r25, Y+7	; 0x07
    2702:	01 96       	adiw	r24, 0x01	; 1
    2704:	8e 83       	std	Y+6, r24	; 0x06
    2706:	9f 83       	std	Y+7, r25	; 0x07
    2708:	81 2f       	mov	r24, r17
    270a:	90 2f       	mov	r25, r16
    270c:	df 91       	pop	r29
    270e:	cf 91       	pop	r28
    2710:	1f 91       	pop	r17
    2712:	0f 91       	pop	r16
    2714:	08 95       	ret

00002716 <__ultoa_invert>:
    2716:	fa 01       	movw	r30, r20
    2718:	aa 27       	eor	r26, r26
    271a:	28 30       	cpi	r18, 0x08	; 8
    271c:	51 f1       	breq	.+84     	; 0x2772 <__ultoa_invert+0x5c>
    271e:	20 31       	cpi	r18, 0x10	; 16
    2720:	81 f1       	breq	.+96     	; 0x2782 <__ultoa_invert+0x6c>
    2722:	e8 94       	clt
    2724:	6f 93       	push	r22
    2726:	6e 7f       	andi	r22, 0xFE	; 254
    2728:	6e 5f       	subi	r22, 0xFE	; 254
    272a:	7f 4f       	sbci	r23, 0xFF	; 255
    272c:	8f 4f       	sbci	r24, 0xFF	; 255
    272e:	9f 4f       	sbci	r25, 0xFF	; 255
    2730:	af 4f       	sbci	r26, 0xFF	; 255
    2732:	b1 e0       	ldi	r27, 0x01	; 1
    2734:	3e d0       	rcall	.+124    	; 0x27b2 <__ultoa_invert+0x9c>
    2736:	b4 e0       	ldi	r27, 0x04	; 4
    2738:	3c d0       	rcall	.+120    	; 0x27b2 <__ultoa_invert+0x9c>
    273a:	67 0f       	add	r22, r23
    273c:	78 1f       	adc	r23, r24
    273e:	89 1f       	adc	r24, r25
    2740:	9a 1f       	adc	r25, r26
    2742:	a1 1d       	adc	r26, r1
    2744:	68 0f       	add	r22, r24
    2746:	79 1f       	adc	r23, r25
    2748:	8a 1f       	adc	r24, r26
    274a:	91 1d       	adc	r25, r1
    274c:	a1 1d       	adc	r26, r1
    274e:	6a 0f       	add	r22, r26
    2750:	71 1d       	adc	r23, r1
    2752:	81 1d       	adc	r24, r1
    2754:	91 1d       	adc	r25, r1
    2756:	a1 1d       	adc	r26, r1
    2758:	20 d0       	rcall	.+64     	; 0x279a <__ultoa_invert+0x84>
    275a:	09 f4       	brne	.+2      	; 0x275e <__ultoa_invert+0x48>
    275c:	68 94       	set
    275e:	3f 91       	pop	r19
    2760:	2a e0       	ldi	r18, 0x0A	; 10
    2762:	26 9f       	mul	r18, r22
    2764:	11 24       	eor	r1, r1
    2766:	30 19       	sub	r19, r0
    2768:	30 5d       	subi	r19, 0xD0	; 208
    276a:	31 93       	st	Z+, r19
    276c:	de f6       	brtc	.-74     	; 0x2724 <__ultoa_invert+0xe>
    276e:	cf 01       	movw	r24, r30
    2770:	08 95       	ret
    2772:	46 2f       	mov	r20, r22
    2774:	47 70       	andi	r20, 0x07	; 7
    2776:	40 5d       	subi	r20, 0xD0	; 208
    2778:	41 93       	st	Z+, r20
    277a:	b3 e0       	ldi	r27, 0x03	; 3
    277c:	0f d0       	rcall	.+30     	; 0x279c <__ultoa_invert+0x86>
    277e:	c9 f7       	brne	.-14     	; 0x2772 <__ultoa_invert+0x5c>
    2780:	f6 cf       	rjmp	.-20     	; 0x276e <__ultoa_invert+0x58>
    2782:	46 2f       	mov	r20, r22
    2784:	4f 70       	andi	r20, 0x0F	; 15
    2786:	40 5d       	subi	r20, 0xD0	; 208
    2788:	4a 33       	cpi	r20, 0x3A	; 58
    278a:	18 f0       	brcs	.+6      	; 0x2792 <__ultoa_invert+0x7c>
    278c:	49 5d       	subi	r20, 0xD9	; 217
    278e:	31 fd       	sbrc	r19, 1
    2790:	40 52       	subi	r20, 0x20	; 32
    2792:	41 93       	st	Z+, r20
    2794:	02 d0       	rcall	.+4      	; 0x279a <__ultoa_invert+0x84>
    2796:	a9 f7       	brne	.-22     	; 0x2782 <__ultoa_invert+0x6c>
    2798:	ea cf       	rjmp	.-44     	; 0x276e <__ultoa_invert+0x58>
    279a:	b4 e0       	ldi	r27, 0x04	; 4
    279c:	a6 95       	lsr	r26
    279e:	97 95       	ror	r25
    27a0:	87 95       	ror	r24
    27a2:	77 95       	ror	r23
    27a4:	67 95       	ror	r22
    27a6:	ba 95       	dec	r27
    27a8:	c9 f7       	brne	.-14     	; 0x279c <__ultoa_invert+0x86>
    27aa:	00 97       	sbiw	r24, 0x00	; 0
    27ac:	61 05       	cpc	r22, r1
    27ae:	71 05       	cpc	r23, r1
    27b0:	08 95       	ret
    27b2:	9b 01       	movw	r18, r22
    27b4:	ac 01       	movw	r20, r24
    27b6:	0a 2e       	mov	r0, r26
    27b8:	06 94       	lsr	r0
    27ba:	57 95       	ror	r21
    27bc:	47 95       	ror	r20
    27be:	37 95       	ror	r19
    27c0:	27 95       	ror	r18
    27c2:	ba 95       	dec	r27
    27c4:	c9 f7       	brne	.-14     	; 0x27b8 <__ultoa_invert+0xa2>
    27c6:	62 0f       	add	r22, r18
    27c8:	73 1f       	adc	r23, r19
    27ca:	84 1f       	adc	r24, r20
    27cc:	95 1f       	adc	r25, r21
    27ce:	a0 1d       	adc	r26, r0
    27d0:	08 95       	ret

000027d2 <_exit>:
    27d2:	f8 94       	cli

000027d4 <__stop_program>:
    27d4:	ff cf       	rjmp	.-2      	; 0x27d4 <__stop_program>
